Certificate:
    Data:
        Version: 3 (0x2)
        Serial Number: 8 (0x8)
    Signature Algorithm: sha1WithRSAEncryption
        Issuer: C=IT, O=IGI, CN=Test CA
        Validity
            Not Before: Oct  1 13:16:32 2022 GMT
            Not After : Sep 28 13:16:32 2032 GMT
        Subject: C=IT, O=IGI, CN=test0
        Subject Public Key Info:
            Public Key Algorithm: rsaEncryption
                Public-Key: (2048 bit)
                Modulus:
                    00:a8:c8:82:0d:1f:b6:1a:a8:a3:08:5b:89:08:e3:
                    51:34:80:3a:ad:69:02:98:29:d0:af:d5:c0:cb:f7:
                    f8:9b:83:44:0b:3b:f8:72:6a:4f:6e:f7:34:27:a7:
                    b5:e5:2b:a7:bd:37:09:cc:4f:77:9f:9f:7a:39:c5:
                    6c:80:e2:76:3c:51:6b:d7:41:1c:50:8e:e4:0e:d6:
                    1c:4c:6a:7c:45:c7:35:47:61:89:1d:e6:9e:09:0f:
                    2d:e5:ac:34:8f:83:0f:32:a2:33:d9:88:0c:15:70:
                    35:99:7d:5c:d7:10:2f:c4:10:0b:5b:85:e4:99:73:
                    27:50:68:45:92:08:b9:98:f6:ba:eb:8b:2b:f1:ac:
                    89:58:6a:20:33:5c:58:55:d2:14:6c:c4:fc:bd:16:
                    4f:39:9e:ad:49:57:37:80:37:b8:d5:b7:72:55:ac:
                    38:07:77:5e:c8:40:8c:92:5f:3d:c9:53:b5:18:0a:
                    11:9c:5b:70:8e:e0:b3:5e:e2:9d:fd:71:b8:d6:eb:
                    06:e2:52:aa:3e:ed:c6:92:26:c3:b1:c2:84:b6:45:
                    c1:c0:6a:18:1d:f8:11:9e:80:c9:2b:e3:c9:2b:9a:
                    88:ee:0d:c6:2b:ae:40:0b:e0:02:b4:52:1e:71:5d:
                    d5:ae:97:59:06:d1:21:5f:d1:6c:8d:db:70:a3:b8:
                    51:17
                Exponent: 65537 (0x10001)
        X509v3 extensions:
            X509v3 Basic Constraints: critical
                CA:FALSE
            X509v3 Subject Key Identifier: 
                6A:88:27:2A:FC:4B:88:AF:0E:48:0D:45:FF:DC:7E:EE:A0:83:B6:E5
            X509v3 Key Usage: critical
                Digital Signature, Non Repudiation, Key Encipherment
            X509v3 Extended Key Usage: 
                TLS Web Server Authentication, TLS Web Client Authentication, Microsoft Server Gated Crypto, Netscape Server Gated Crypto, E-mail Protection
            X509v3 Authority Key Identifier: 
                keyid:50:9B:6F:74:01:E3:1A:03:57:AB:D9:D5:7D:15:64:4C:25:F3:F8:F4

            X509v3 Subject Alternative Name: 
                email:andrea.ceccanti@cnaf.infn.it
    Signature Algorithm: sha1WithRSAEncryption
         47:06:4e:4f:72:bd:c4:5c:96:5e:74:f7:84:42:e5:c2:74:f3:
         03:00:9a:40:71:94:c2:4c:83:5f:19:1a:10:5c:36:10:93:a7:
         1e:f1:b1:fc:8c:73:e6:6a:8e:9d:a9:5f:df:ff:5e:32:d8:99:
         a4:cf:e6:a2:15:08:52:4b:20:cb:93:8c:b0:4e:01:87:4f:e9:
         29:58:4b:18:19:b3:78:01:d7:0c:94:7d:4b:f6:e6:86:ed:86:
         ee:01:9c:c7:e9:b9:1d:f0:72:ec:4e:2c:2c:95:76:07:8f:29:
         5d:6d:02:fd:65:4e:83:ac:60:1d:b7:f2:2e:01:f1:6b:42:35:
         96:b8:9d:b5:49:f0:65:9e:9e:0e:91:64:0a:e7:04:e4:b1:3b:
         df:79:95:fa:57:08:a7:a5:7c:c5:eb:12:2b:b4:07:c9:ec:e6:
         11:0e:e3:7b:50:8a:f0:06:5f:46:d2:1a:10:3e:e5:c5:25:e5:
         51:03:36:11:c0:35:5b:7a:34:a8:ff:c3:96:0a:3d:7b:11:70:
         ce:fa:d1:ba:31:df:89:60:8b:2a:27:8c:2b:ca:d7:78:61:eb:
         98:0d:50:f3:6d:55:7c:0c:77:cc:ae:4d:be:3d:e2:74:9d:23:
         92:c9:85:7e:76:86:85:cc:9e:bc:df:bb:f0:f3:ee:60:c4:34:
         c7:4f:fb:a7
-----BEGIN CERTIFICATE-----
MIIDnjCCAoagAwIBAgIBCDANBgkqhkiG9w0BAQUFADAtMQswCQYDVQQGEwJJVDEM
MAoGA1UECgwDSUdJMRAwDgYDVQQDDAdUZXN0IENBMB4XDTIyMTAwMTEzMTYzMloX
DTMyMDkyODEzMTYzMlowKzELMAkGA1UEBhMCSVQxDDAKBgNVBAoMA0lHSTEOMAwG
A1UEAwwFdGVzdDAwggEiMA0GCSqGSIb3DQEBAQUAA4IBDwAwggEKAoIBAQCoyIIN
H7YaqKMIW4kI41E0gDqtaQKYKdCv1cDL9/ibg0QLO/hyak9u9zQnp7XlK6e9NwnM
T3efn3o5xWyA4nY8UWvXQRxQjuQO1hxManxFxzVHYYkd5p4JDy3lrDSPgw8yojPZ
iAwVcDWZfVzXEC/EEAtbheSZcydQaEWSCLmY9rrriyvxrIlYaiAzXFhV0hRsxPy9
Fk85nq1JVzeAN7jVt3JVrDgHd17IQIySXz3JU7UYChGcW3CO4LNe4p39cbjW6wbi
Uqo+7caSJsOxwoS2RcHAahgd+BGegMkr48krmojuDcYrrkAL4AK0Uh5xXdWul1kG
0SFf0WyN23CjuFEXAgMBAAGjgcowgccwDAYDVR0TAQH/BAIwADAdBgNVHQ4EFgQU
aognKvxLiK8OSA1F/9x+7qCDtuUwDgYDVR0PAQH/BAQDAgXgMD4GA1UdJQQ3MDUG
CCsGAQUFBwMBBggrBgEFBQcDAgYKKwYBBAGCNwoDAwYJYIZIAYb4QgQBBggrBgEF
BQcDBDAfBgNVHSMEGDAWgBRQm290AeMaA1er2dV9FWRMJfP49DAnBgNVHREEIDAe
gRxhbmRyZWEuY2VjY2FudGlAY25hZi5pbmZuLml0MA0GCSqGSIb3DQEBBQUAA4IB
AQBHBk5Pcr3EXJZedPeEQuXCdPMDAJpAcZTCTINfGRoQXDYQk6ce8bH8jHPmao6d
qV/f/14y2Jmkz+aiFQhSSyDLk4ywTgGHT+kpWEsYGbN4AdcMlH1L9uaG7YbuAZzH
6bkd8HLsTiwslXYHjyldbQL9ZU6DrGAdt/IuAfFrQjWWuJ21SfBlnp4OkWQK5wTk
sTvfeZX6VwinpXzF6xIrtAfJ7OYRDuN7UIrwBl9G0hoQPuXFJeVRAzYRwDVbejSo
/8OWCj17EXDO+tG6Md+JYIsqJ4wrytd4YeuYDVDzbVV8DHfMrk2+PeJ0nSOSyYV+
doaFzJ6837vw8+5gxDTHT/un
-----END CERTIFICATE-----
