Certificate:
    Data:
        Version: 3 (0x2)
        Serial Number: 21 (0x15)
    Signature Algorithm: sha1WithRSAEncryption
        Issuer: C=IT, O=IGI, CN=Test CA
        Validity
            Not Before: Dec 14 18:44:17 2012 GMT
            Not After : Dec 12 18:44:17 2022 GMT
        Subject: C=IT, O=IGI, CN=test-host.cnaf.infn.it
        Subject Public Key Info:
            Public Key Algorithm: rsaEncryption
                Public-Key: (2048 bit)
                Modulus:
                    00:a0:8b:f4:59:d4:91:e9:03:92:5f:7f:3e:15:dd:
                    38:e1:1d:ed:9c:f0:9f:c1:c5:75:cb:7c:2d:e9:49:
                    a7:be:76:5a:c5:cb:fb:0a:15:77:1b:5e:6b:47:b7:
                    8c:63:a3:ba:a4:3d:95:d4:a7:b9:e0:1e:47:6a:94:
                    8f:f2:27:41:c0:4e:ca:1f:9c:c6:37:d4:e6:6c:f7:
                    18:bf:4a:48:10:49:54:31:ad:07:b0:55:19:6b:0b:
                    7e:3b:2a:ca:b0:72:57:c0:09:d7:93:e0:0d:9c:e0:
                    b9:b6:a9:c8:0c:65:11:19:9e:81:68:a6:a9:c9:de:
                    b8:af:49:0f:ce:e9:d0:52:74:ed:8a:8d:5c:b4:52:
                    4d:cc:62:5a:a6:f4:4c:b8:d5:49:6e:36:e8:f2:74:
                    7e:ac:ce:19:0e:17:61:ea:b3:2e:ec:49:a5:02:89:
                    04:55:01:58:8b:ab:d1:6b:2f:27:00:4f:e7:33:32:
                    c4:20:f2:7f:f0:97:8b:5f:7c:23:be:89:66:fd:e9:
                    81:11:79:c5:a3:c7:9c:57:8c:8d:f9:07:a3:45:cd:
                    c7:88:cc:28:9f:cb:28:8b:53:91:a4:6e:ad:ff:b3:
                    bd:ad:55:4c:00:85:3e:98:e2:47:03:71:02:5d:b5:
                    8f:ae:ae:7d:e2:67:1e:07:73:e2:83:fb:42:97:5c:
                    f7:83
                Exponent: 65537 (0x10001)
        X509v3 extensions:
            X509v3 Basic Constraints: critical
                CA:FALSE
            X509v3 Subject Key Identifier: 
                E3:D1:54:6B:2B:2E:0A:3B:A5:49:8E:C4:C2:7E:11:DB:7B:AC:0D:DD
            X509v3 Key Usage: critical
                Digital Signature, Non Repudiation, Key Encipherment
            X509v3 Extended Key Usage: 
                TLS Web Server Authentication, TLS Web Client Authentication, Microsoft Server Gated Crypto, Netscape Server Gated Crypto, E-mail Protection
            X509v3 Authority Key Identifier: 
                keyid:91:77:36:7B:2E:B4:69:F3:27:EA:B7:F6:08:8B:4A:23:A2:11:49:C6

            X509v3 Subject Alternative Name: 
                email:andrea.ceccanti@cnaf.infn.it
    Signature Algorithm: sha1WithRSAEncryption
         cf:44:b8:6e:bb:17:da:b2:39:fe:9b:10:e2:a7:64:e9:b1:13:
         b1:96:24:e9:08:22:0a:b3:47:67:6c:03:43:9d:f8:4f:d3:25:
         d8:a7:e0:7d:d6:3c:18:50:97:76:c9:f5:17:c0:42:60:c7:a3:
         b4:74:67:5b:a2:16:e1:85:6a:15:39:25:3a:02:59:dc:84:a3:
         f3:90:dc:69:51:2e:13:9b:f3:53:f5:51:78:f2:00:ca:46:65:
         73:34:f0:5d:3f:49:51:f9:66:b6:4c:0c:5d:24:ef:db:2f:d7:
         0f:72:c8:b4:93:f6:25:38:2f:fd:fa:c3:9b:d9:51:dd:07:90:
         eb:0d:98:36:78:89:58:f1:28:cc:4d:eb:0b:86:12:1e:54:d2:
         88:d5:54:c4:ae:36:46:9b:7c:d9:f7:59:63:33:ad:f0:fd:2e:
         f1:ae:7c:55:49:df:3d:50:01:88:f5:6a:c1:2b:50:e0:74:b8:
         35:ad:71:d3:ac:f1:da:e8:b8:2c:9a:9c:46:5d:b2:26:97:cf:
         50:20:9b:de:8b:2b:21:52:a3:52:ac:2c:bc:bf:5a:84:c5:17:
         58:c4:ff:a5:1c:14:c0:36:b9:31:58:ba:1a:f0:63:ff:6b:ee:
         d4:a2:b6:7f:6a:41:89:20:50:77:c3:1b:b5:0e:6e:02:ae:6d:
         b1:f1:4e:48
-----BEGIN CERTIFICATE-----
MIIDrzCCApegAwIBAgIBFTANBgkqhkiG9w0BAQUFADAtMQswCQYDVQQGEwJJVDEM
MAoGA1UECgwDSUdJMRAwDgYDVQQDDAdUZXN0IENBMB4XDTEyMTIxNDE4NDQxN1oX
DTIyMTIxMjE4NDQxN1owPDELMAkGA1UEBhMCSVQxDDAKBgNVBAoTA0lHSTEfMB0G
A1UEAxMWdGVzdC1ob3N0LmNuYWYuaW5mbi5pdDCCASIwDQYJKoZIhvcNAQEBBQAD
ggEPADCCAQoCggEBAKCL9FnUkekDkl9/PhXdOOEd7Zzwn8HFdct8LelJp752WsXL
+woVdxtea0e3jGOjuqQ9ldSnueAeR2qUj/InQcBOyh+cxjfU5mz3GL9KSBBJVDGt
B7BVGWsLfjsqyrByV8AJ15PgDZzgubapyAxlERmegWimqcneuK9JD87p0FJ07YqN
XLRSTcxiWqb0TLjVSW426PJ0fqzOGQ4XYeqzLuxJpQKJBFUBWIur0WsvJwBP5zMy
xCDyf/CXi198I76JZv3pgRF5xaPHnFeMjfkHo0XNx4jMKJ/LKItTkaRurf+zva1V
TACFPpjiRwNxAl21j66ufeJnHgdz4oP7Qpdc94MCAwEAAaOByjCBxzAMBgNVHRMB
Af8EAjAAMB0GA1UdDgQWBBTj0VRrKy4KO6VJjsTCfhHbe6wN3TAOBgNVHQ8BAf8E
BAMCBeAwPgYDVR0lBDcwNQYIKwYBBQUHAwEGCCsGAQUFBwMCBgorBgEEAYI3CgMD
BglghkgBhvhCBAEGCCsGAQUFBwMEMB8GA1UdIwQYMBaAFJF3NnsutGnzJ+q39giL
SiOiEUnGMCcGA1UdEQQgMB6BHGFuZHJlYS5jZWNjYW50aUBjbmFmLmluZm4uaXQw
DQYJKoZIhvcNAQEFBQADggEBAM9EuG67F9qyOf6bEOKnZOmxE7GWJOkIIgqzR2ds
A0Od+E/TJdin4H3WPBhQl3bJ9RfAQmDHo7R0Z1uiFuGFahU5JToCWdyEo/OQ3GlR
LhOb81P1UXjyAMpGZXM08F0/SVH5ZrZMDF0k79sv1w9yyLST9iU4L/36w5vZUd0H
kOsNmDZ4iVjxKMxN6wuGEh5U0ojVVMSuNkabfNn3WWMzrfD9LvGufFVJ3z1QAYj1
asErUOB0uDWtcdOs8drouCyanEZdsiaXz1Agm96LKyFSo1KsLLy/WoTFF1jE/6Uc
FMA2uTFYuhrwY/9r7tSitn9qQYkgUHfDG7UObgKubbHxTkg=
-----END CERTIFICATE-----
