Certificate:
    Data:
        Version: 3 (0x2)
        Serial Number: 20 (0x14)
    Signature Algorithm: sha1WithRSAEncryption
        Issuer: C=IT, O=IGI, CN=Test CA
        Validity
            Not Before: Dec 12 09:54:04 2012 GMT
            Not After : Dec 10 09:54:04 2022 GMT
        Subject: C=IT, O=IGI, CN=(Parenthesis)
        Subject Public Key Info:
            Public Key Algorithm: rsaEncryption
                Public-Key: (2048 bit)
                Modulus:
                    00:9a:fe:9f:81:a0:ff:4c:43:9e:c7:7b:db:09:20:
                    cf:84:39:ca:51:2c:5a:1b:92:a5:f2:96:1c:dd:cb:
                    01:fb:8c:e7:81:5f:ab:8c:6a:8e:38:db:f8:ab:5e:
                    c8:b2:f4:cf:db:d3:9a:ff:8d:c2:fc:0a:d8:1d:58:
                    7b:f5:72:8d:fe:68:b0:c3:88:f4:5a:cc:f0:8d:84:
                    1e:16:e6:6b:d4:34:f6:0f:c5:c2:eb:7b:39:d2:ce:
                    32:d2:67:cc:29:e2:87:ea:f7:f0:f5:e0:99:50:18:
                    97:db:49:e0:1e:b9:d7:17:6b:15:0f:98:98:60:cd:
                    7b:f3:dc:62:c6:69:47:0f:bd:b5:fa:cf:a3:75:c1:
                    1f:6f:b9:27:e3:6d:81:ba:7f:c0:eb:d4:64:21:47:
                    e6:73:dc:49:3d:9c:01:98:e0:ba:c2:65:85:e0:69:
                    f6:f8:ef:cf:a9:15:69:56:22:c2:b6:b9:bb:f9:05:
                    5a:8d:e3:cd:09:c3:52:3c:00:21:b4:6c:cb:41:9e:
                    7a:18:d7:dd:56:1a:58:08:77:02:05:9a:9b:b7:ac:
                    90:5a:c0:e6:b3:9c:35:02:a0:50:73:9f:b9:44:1d:
                    08:b8:d4:4e:72:24:78:a7:8f:c5:ad:79:68:34:bf:
                    db:bf:01:c4:c0:93:22:86:63:15:fa:f3:0d:9a:79:
                    31:7d
                Exponent: 65537 (0x10001)
        X509v3 extensions:
            X509v3 Basic Constraints: critical
                CA:FALSE
            X509v3 Subject Key Identifier: 
                CC:45:DA:5B:00:B6:EF:DC:B7:B2:CF:2E:09:71:37:37:18:C8:EE:D3
            X509v3 Key Usage: critical
                Digital Signature, Non Repudiation, Key Encipherment
            X509v3 Extended Key Usage: 
                TLS Web Server Authentication, TLS Web Client Authentication, Microsoft Server Gated Crypto, Netscape Server Gated Crypto, E-mail Protection
            X509v3 Authority Key Identifier: 
                keyid:91:77:36:7B:2E:B4:69:F3:27:EA:B7:F6:08:8B:4A:23:A2:11:49:C6

            X509v3 Subject Alternative Name: 
                email:andrea.ceccanti@cnaf.infn.it
    Signature Algorithm: sha1WithRSAEncryption
         c3:a9:c9:12:0a:ed:8e:d8:7a:01:0a:37:ad:09:cb:0a:ed:85:
         c8:68:f3:e4:b0:a6:2e:e4:dc:35:f2:6f:b0:d8:8f:fc:e8:e1:
         7c:cb:b7:bd:57:e7:1b:1b:e6:04:25:2a:db:37:bf:34:d9:6e:
         04:7e:7d:42:8b:1b:e5:68:71:a4:d3:b4:5e:3c:16:98:dc:84:
         65:1b:02:eb:8d:1c:33:58:75:04:e2:eb:1a:ba:ae:97:a2:a6:
         95:f2:0d:58:54:ba:de:a7:8c:d2:e7:e3:da:cf:d5:a8:d3:2a:
         80:6b:89:7b:06:aa:10:1c:be:20:2b:60:db:58:29:21:64:ee:
         85:2a:b1:57:a9:2e:99:8e:11:19:42:7c:ad:39:e7:d1:89:94:
         a4:f4:f8:78:91:18:4b:47:0a:c5:32:2b:dc:35:14:f7:76:db:
         15:1b:4d:18:3f:7f:35:24:28:cd:16:e0:a8:47:ee:6e:2e:9b:
         29:d6:83:a6:65:e5:e7:0e:55:4c:15:cc:78:fd:12:96:cf:e0:
         30:3f:e5:c3:02:69:1b:15:a2:e3:6f:b5:2f:50:fc:77:8b:14:
         85:11:84:10:c5:4a:b0:b5:eb:dc:d2:d0:7f:ee:f3:a4:f0:8d:
         3a:12:75:16:1d:30:3d:1a:92:f9:04:69:d9:b4:e8:af:59:57:
         6c:14:28:53
-----BEGIN CERTIFICATE-----
MIIDpjCCAo6gAwIBAgIBFDANBgkqhkiG9w0BAQUFADAtMQswCQYDVQQGEwJJVDEM
MAoGA1UECgwDSUdJMRAwDgYDVQQDDAdUZXN0IENBMB4XDTEyMTIxMjA5NTQwNFoX
DTIyMTIxMDA5NTQwNFowMzELMAkGA1UEBhMCSVQxDDAKBgNVBAoTA0lHSTEWMBQG
A1UEAxMNKFBhcmVudGhlc2lzKTCCASIwDQYJKoZIhvcNAQEBBQADggEPADCCAQoC
ggEBAJr+n4Gg/0xDnsd72wkgz4Q5ylEsWhuSpfKWHN3LAfuM54Ffq4xqjjjb+Kte
yLL0z9vTmv+NwvwK2B1Ye/Vyjf5osMOI9FrM8I2EHhbma9Q09g/Fwut7OdLOMtJn
zCnih+r38PXgmVAYl9tJ4B651xdrFQ+YmGDNe/PcYsZpRw+9tfrPo3XBH2+5J+Nt
gbp/wOvUZCFH5nPcST2cAZjgusJlheBp9vjvz6kVaVYiwra5u/kFWo3jzQnDUjwA
IbRsy0GeehjX3VYaWAh3AgWam7eskFrA5rOcNQKgUHOfuUQdCLjUTnIkeKePxa15
aDS/278BxMCTIoZjFfrzDZp5MX0CAwEAAaOByjCBxzAMBgNVHRMBAf8EAjAAMB0G
A1UdDgQWBBTMRdpbALbv3Leyzy4JcTc3GMju0zAOBgNVHQ8BAf8EBAMCBeAwPgYD
VR0lBDcwNQYIKwYBBQUHAwEGCCsGAQUFBwMCBgorBgEEAYI3CgMDBglghkgBhvhC
BAEGCCsGAQUFBwMEMB8GA1UdIwQYMBaAFJF3NnsutGnzJ+q39giLSiOiEUnGMCcG
A1UdEQQgMB6BHGFuZHJlYS5jZWNjYW50aUBjbmFmLmluZm4uaXQwDQYJKoZIhvcN
AQEFBQADggEBAMOpyRIK7Y7YegEKN60Jywrthcho8+Swpi7k3DXyb7DYj/zo4XzL
t71X5xsb5gQlKts3vzTZbgR+fUKLG+VocaTTtF48FpjchGUbAuuNHDNYdQTi6xq6
rpeippXyDVhUut6njNLn49rP1ajTKoBriXsGqhAcviArYNtYKSFk7oUqsVepLpmO
ERlCfK0559GJlKT0+HiRGEtHCsUyK9w1FPd22xUbTRg/fzUkKM0W4KhH7m4umynW
g6Zl5ecOVUwVzHj9EpbP4DA/5cMCaRsVouNvtS9Q/HeLFIURhBDFSrC169zS0H/u
86TwjToSdRYdMD0akvkEadm06K9ZV2wUKFM=
-----END CERTIFICATE-----
