Certificate:
    Data:
        Version: 3 (0x2)
        Serial Number: 22 (0x16)
    Signature Algorithm: sha1WithRSAEncryption
        Issuer: C=IT, O=IGI, CN=Test CA
        Validity
            Not Before: Dec 14 19:06:15 2012 GMT
            Not After : Dec 12 19:06:15 2022 GMT
        Subject: C=IT, O=IGI, CN=expired-cert-host.cnaf.infn.it
        Subject Public Key Info:
            Public Key Algorithm: rsaEncryption
                Public-Key: (2048 bit)
                Modulus:
                    00:c3:ca:21:e8:06:94:93:10:4e:7b:77:70:2c:0d:
                    b1:f5:66:df:66:37:bf:fa:24:51:f7:c7:52:c3:46:
                    26:97:7b:d9:48:18:6a:01:45:b2:8f:aa:b8:95:a1:
                    66:22:c7:14:56:c7:b6:89:2f:dc:fc:7c:c4:a9:8b:
                    44:97:8d:f2:43:40:72:73:80:0d:23:55:33:fd:8b:
                    3b:63:4d:a8:e4:fc:72:50:a6:fb:cb:71:56:52:8a:
                    a5:55:0b:5e:a8:c5:c3:69:51:a5:6b:43:6c:74:77:
                    0f:cf:69:f2:df:4b:80:4c:3f:c7:b6:bc:e3:a6:9a:
                    05:4e:45:89:32:44:17:3c:f0:db:31:9b:9e:a7:8b:
                    85:d2:d2:57:a4:cd:97:80:4e:ba:e5:e3:7c:47:9b:
                    43:cf:85:3b:b4:1d:1d:0d:b3:89:b6:c6:34:5e:83:
                    6b:00:2b:bb:a4:ae:d3:e9:4f:43:0f:df:e4:18:84:
                    a9:a1:39:ed:df:c4:8c:04:bd:3f:b5:c3:c2:90:5e:
                    b8:26:2f:c8:11:4f:71:ab:a1:83:5a:03:28:3b:15:
                    b4:0a:b7:5f:62:0d:70:9d:56:5b:c8:8e:12:d3:7f:
                    e5:d2:65:10:19:23:77:c2:2e:64:61:2e:d1:5a:8e:
                    ec:02:50:f2:2f:71:14:e9:d2:9b:0c:59:de:86:d4:
                    83:19
                Exponent: 65537 (0x10001)
        X509v3 extensions:
            X509v3 Basic Constraints: critical
                CA:FALSE
            X509v3 Subject Key Identifier: 
                09:9C:C2:A2:D9:BB:D4:27:77:DE:6E:12:B0:4C:17:58:B6:83:E8:B1
            X509v3 Key Usage: critical
                Digital Signature, Non Repudiation, Key Encipherment
            X509v3 Extended Key Usage: 
                TLS Web Server Authentication, TLS Web Client Authentication, Microsoft Server Gated Crypto, Netscape Server Gated Crypto, E-mail Protection
            X509v3 Authority Key Identifier: 
                keyid:91:77:36:7B:2E:B4:69:F3:27:EA:B7:F6:08:8B:4A:23:A2:11:49:C6

            X509v3 Subject Alternative Name: 
                email:andrea.ceccanti@cnaf.infn.it
    Signature Algorithm: sha1WithRSAEncryption
         5b:c1:59:ca:31:5b:fa:d3:da:3c:0b:c3:0b:46:50:11:bd:99:
         9c:ea:88:f9:5a:7a:ff:c9:9b:f8:a2:4b:e7:ee:23:47:fb:ca:
         0b:56:12:ed:8f:12:4c:9d:69:e6:ec:51:bf:9b:af:98:f7:54:
         a5:9a:89:b8:c2:0a:92:35:4a:a4:31:0b:f0:c8:5a:a9:95:8c:
         16:b1:49:8e:ec:0d:d2:24:ce:ec:fc:1a:fa:9c:fd:04:a5:9b:
         c9:d1:0b:a9:8b:9b:e6:7a:db:52:c8:fc:eb:84:4e:b0:dc:32:
         4b:dc:76:00:f8:bf:69:77:5b:69:a8:17:79:67:d8:43:f0:ce:
         59:f0:5f:36:2f:bb:a4:1a:14:f2:8e:07:40:2a:3d:0e:15:ef:
         af:05:97:d8:a0:18:5c:29:20:a9:64:cb:e6:40:b8:29:69:3d:
         17:9f:03:73:09:1b:23:c2:32:38:89:f7:f9:ff:55:34:26:96:
         91:6d:82:75:21:2b:c5:bd:c2:bd:c4:8c:b6:1b:80:fe:52:62:
         38:2b:f6:60:a5:6c:8f:1f:cd:f0:09:d6:35:df:31:50:f2:a3:
         83:a6:15:c6:bf:26:41:f0:0f:ec:38:b7:d1:b7:10:bb:dc:81:
         a6:45:22:63:db:00:b3:e4:d8:b0:ef:80:02:5f:bf:39:62:07:
         1c:bc:f7:e7
-----BEGIN CERTIFICATE-----
MIIDtzCCAp+gAwIBAgIBFjANBgkqhkiG9w0BAQUFADAtMQswCQYDVQQGEwJJVDEM
MAoGA1UECgwDSUdJMRAwDgYDVQQDDAdUZXN0IENBMB4XDTEyMTIxNDE5MDYxNVoX
DTIyMTIxMjE5MDYxNVowRDELMAkGA1UEBhMCSVQxDDAKBgNVBAoTA0lHSTEnMCUG
A1UEAxMeZXhwaXJlZC1jZXJ0LWhvc3QuY25hZi5pbmZuLml0MIIBIjANBgkqhkiG
9w0BAQEFAAOCAQ8AMIIBCgKCAQEAw8oh6AaUkxBOe3dwLA2x9WbfZje/+iRR98dS
w0Yml3vZSBhqAUWyj6q4laFmIscUVse2iS/c/HzEqYtEl43yQ0Byc4ANI1Uz/Ys7
Y02o5PxyUKb7y3FWUoqlVQteqMXDaVGla0NsdHcPz2ny30uATD/HtrzjppoFTkWJ
MkQXPPDbMZuep4uF0tJXpM2XgE665eN8R5tDz4U7tB0dDbOJtsY0XoNrACu7pK7T
6U9DD9/kGISpoTnt38SMBL0/tcPCkF64Ji/IEU9xq6GDWgMoOxW0CrdfYg1wnVZb
yI4S03/l0mUQGSN3wi5kYS7RWo7sAlDyL3EU6dKbDFnehtSDGQIDAQABo4HKMIHH
MAwGA1UdEwEB/wQCMAAwHQYDVR0OBBYEFAmcwqLZu9Qnd95uErBMF1i2g+ixMA4G
A1UdDwEB/wQEAwIF4DA+BgNVHSUENzA1BggrBgEFBQcDAQYIKwYBBQUHAwIGCisG
AQQBgjcKAwMGCWCGSAGG+EIEAQYIKwYBBQUHAwQwHwYDVR0jBBgwFoAUkXc2ey60
afMn6rf2CItKI6IRScYwJwYDVR0RBCAwHoEcYW5kcmVhLmNlY2NhbnRpQGNuYWYu
aW5mbi5pdDANBgkqhkiG9w0BAQUFAAOCAQEAW8FZyjFb+tPaPAvDC0ZQEb2ZnOqI
+Vp6/8mb+KJL5+4jR/vKC1YS7Y8STJ1p5uxRv5uvmPdUpZqJuMIKkjVKpDEL8Mha
qZWMFrFJjuwN0iTO7Pwa+pz9BKWbydELqYub5nrbUsj864ROsNwyS9x2APi/aXdb
aagXeWfYQ/DOWfBfNi+7pBoU8o4HQCo9DhXvrwWX2KAYXCkgqWTL5kC4KWk9F58D
cwkbI8IyOIn3+f9VNCaWkW2CdSErxb3CvcSMthuA/lJiOCv2YKVsjx/N8AnWNd8x
UPKjg6YVxr8mQfAP7Di30bcQu9yBpkUiY9sAs+TYsO+AAl+/OWIHHLz35w==
-----END CERTIFICATE-----
