Certificate:
    Data:
        Version: 3 (0x2)
        Serial Number: 17 (0x11)
    Signature Algorithm: sha1WithRSAEncryption
        Issuer: C=IT, O=IGI, CN=Test CA
        Validity
            Not Before: Oct 24 14:28:33 2012 GMT
            Not After : Oct 22 14:28:33 2022 GMT
        Subject: C=IT, O=IGI, CN=quasi-revoked
        Subject Public Key Info:
            Public Key Algorithm: rsaEncryption
                Public-Key: (2048 bit)
                Modulus:
                    00:ce:53:81:8f:01:47:1f:cb:bd:b2:bf:b3:c4:2d:
                    7f:96:9b:53:b1:04:44:fb:da:62:6f:9d:f4:e9:78:
                    15:ed:18:52:68:c5:ac:ce:1d:52:98:ac:97:e1:f7:
                    1a:aa:58:ee:65:91:fa:7c:a0:4c:a7:67:c4:67:20:
                    05:90:a7:e6:6c:3f:fc:df:3c:f2:cb:f2:ff:98:1d:
                    19:56:f2:2f:5b:78:43:38:e5:90:15:d4:a5:39:d0:
                    df:94:91:12:92:99:60:51:86:ab:d2:32:f7:91:04:
                    76:04:00:b5:b2:b1:03:15:f7:57:49:ff:fa:55:7f:
                    56:70:4a:29:1b:ca:32:c3:63:55:c5:eb:28:7b:b2:
                    e8:76:74:72:0a:79:2a:20:4a:4b:26:bb:ac:53:e1:
                    7e:8b:2a:54:95:e5:f8:6c:ef:d5:29:90:ec:45:e8:
                    1f:64:7b:c3:ea:ca:cf:1b:4a:4e:65:df:32:bf:4d:
                    b6:59:ee:56:cb:b6:30:39:c5:0b:75:4b:94:d0:97:
                    48:6a:f6:bb:02:c7:b1:32:54:e1:cc:8f:89:49:e2:
                    56:4e:b6:bf:da:9d:d2:86:c6:20:cb:88:b6:83:1e:
                    a4:08:b8:86:e7:5f:89:c1:a1:5c:0a:30:35:3a:53:
                    0a:ed:a6:e7:2d:47:b9:23:91:a3:d5:b6:75:ab:a4:
                    fc:57
                Exponent: 65537 (0x10001)
        X509v3 extensions:
            X509v3 Basic Constraints: critical
                CA:FALSE
            X509v3 Subject Key Identifier: 
                41:9F:B2:3B:B5:21:1C:8A:8A:70:60:08:19:BF:AE:40:46:C6:73:68
            X509v3 Key Usage: critical
                Digital Signature, Non Repudiation, Key Encipherment
            X509v3 Extended Key Usage: 
                TLS Web Server Authentication, TLS Web Client Authentication, Microsoft Server Gated Crypto, Netscape Server Gated Crypto, E-mail Protection
            X509v3 Authority Key Identifier: 
                keyid:91:77:36:7B:2E:B4:69:F3:27:EA:B7:F6:08:8B:4A:23:A2:11:49:C6

            X509v3 Subject Alternative Name: 
                email:andrea.ceccanti@cnaf.infn.it
    Signature Algorithm: sha1WithRSAEncryption
         b8:b5:86:d2:20:08:85:de:5b:66:a5:50:26:22:54:67:b9:60:
         4d:ee:05:7c:58:6a:63:1e:1d:26:af:ee:61:0a:a4:12:e9:24:
         a1:54:c4:b0:71:37:dd:e9:84:df:28:bf:00:d3:e9:b5:2d:79:
         85:02:6f:7d:16:3f:ea:02:1f:78:c3:c8:3b:fb:6f:f1:1c:2c:
         87:70:f6:6d:9d:be:b2:92:7e:93:52:66:8d:11:97:69:08:d6:
         64:41:54:73:1b:63:5a:59:15:47:93:8b:39:08:1c:6c:56:03:
         f8:3d:a0:f6:cd:7c:7c:4d:c4:92:38:dc:0f:ab:69:5c:b3:dd:
         71:3f:ef:e9:22:c2:0f:9a:d7:22:96:77:36:d0:a9:ae:0e:6b:
         4b:55:5e:bb:8e:3a:b1:19:ba:5b:0c:fb:72:e1:66:22:42:d4:
         61:2b:65:b8:a3:c1:6d:6c:6c:49:fa:5f:e2:fa:e6:3b:7b:60:
         f6:0b:65:b6:bb:aa:1b:a2:ac:15:cb:af:e5:4d:ac:0e:b9:2f:
         98:e3:74:4a:89:2a:3d:84:b3:00:9e:ab:04:6a:52:07:c7:a7:
         71:31:7f:c3:4b:5b:4d:d6:a3:30:21:6b:72:ae:4e:e6:96:df:
         7d:03:0e:fa:19:a5:99:2d:ad:ce:d3:77:1c:3e:df:84:7e:c8:
         88:a6:21:0a
-----BEGIN CERTIFICATE-----
MIIDpjCCAo6gAwIBAgIBETANBgkqhkiG9w0BAQUFADAtMQswCQYDVQQGEwJJVDEM
MAoGA1UECgwDSUdJMRAwDgYDVQQDDAdUZXN0IENBMB4XDTEyMTAyNDE0MjgzM1oX
DTIyMTAyMjE0MjgzM1owMzELMAkGA1UEBhMCSVQxDDAKBgNVBAoTA0lHSTEWMBQG
A1UEAxMNcXVhc2ktcmV2b2tlZDCCASIwDQYJKoZIhvcNAQEBBQADggEPADCCAQoC
ggEBAM5TgY8BRx/LvbK/s8Qtf5abU7EERPvaYm+d9Ol4Fe0YUmjFrM4dUpisl+H3
GqpY7mWR+nygTKdnxGcgBZCn5mw//N888svy/5gdGVbyL1t4QzjlkBXUpTnQ35SR
EpKZYFGGq9Iy95EEdgQAtbKxAxX3V0n/+lV/VnBKKRvKMsNjVcXrKHuy6HZ0cgp5
KiBKSya7rFPhfosqVJXl+Gzv1SmQ7EXoH2R7w+rKzxtKTmXfMr9NtlnuVsu2MDnF
C3VLlNCXSGr2uwLHsTJU4cyPiUniVk62v9qd0obGIMuItoMepAi4hudficGhXAow
NTpTCu2m5y1HuSORo9W2dauk/FcCAwEAAaOByjCBxzAMBgNVHRMBAf8EAjAAMB0G
A1UdDgQWBBRBn7I7tSEciopwYAgZv65ARsZzaDAOBgNVHQ8BAf8EBAMCBeAwPgYD
VR0lBDcwNQYIKwYBBQUHAwEGCCsGAQUFBwMCBgorBgEEAYI3CgMDBglghkgBhvhC
BAEGCCsGAQUFBwMEMB8GA1UdIwQYMBaAFJF3NnsutGnzJ+q39giLSiOiEUnGMCcG
A1UdEQQgMB6BHGFuZHJlYS5jZWNjYW50aUBjbmFmLmluZm4uaXQwDQYJKoZIhvcN
AQEFBQADggEBALi1htIgCIXeW2alUCYiVGe5YE3uBXxYamMeHSav7mEKpBLpJKFU
xLBxN93phN8ovwDT6bUteYUCb30WP+oCH3jDyDv7b/EcLIdw9m2dvrKSfpNSZo0R
l2kI1mRBVHMbY1pZFUeTizkIHGxWA/g9oPbNfHxNxJI43A+raVyz3XE/7+kiwg+a
1yKWdzbQqa4Oa0tVXruOOrEZulsM+3LhZiJC1GErZbijwW1sbEn6X+L65jt7YPYL
Zba7qhuirBXLr+VNrA65L5jjdEqJKj2EswCeqwRqUgfHp3Exf8NLW03WozAha3Ku
TuaW330DDvoZpZktrc7Tdxw+34R+yIimIQo=
-----END CERTIFICATE-----
