Certificate:
    Data:
        Version: 3 (0x2)
        Serial Number: 20 (0x14)
    Signature Algorithm: sha1WithRSAEncryption
        Issuer: C=IT, O=IGI, CN=Test CA
        Validity
            Not Before: Nov 28 16:35:00 2022 GMT
            Not After : Nov 25 16:35:00 2032 GMT
        Subject: C=IT, O=IGI, CN=revoked
        Subject Public Key Info:
            Public Key Algorithm: rsaEncryption
                Public-Key: (2048 bit)
                Modulus:
                    00:f2:64:c2:10:ab:52:69:6b:73:62:ac:0f:26:ee:
                    c3:85:78:28:ae:57:37:15:a5:88:79:af:07:b9:32:
                    b1:ca:01:ae:65:66:b4:ba:7c:0b:5c:07:c2:e3:1f:
                    b2:c6:49:d2:3a:a6:c9:e6:01:05:75:9d:1f:7c:fa:
                    32:a7:1e:df:79:c9:07:49:42:c3:89:ad:30:b2:8a:
                    6b:f0:91:c2:ee:08:33:ca:37:69:8a:50:df:3d:4c:
                    4a:78:97:f5:2b:4e:f2:0c:82:47:b3:b7:6e:6d:74:
                    e2:c4:55:7c:ad:de:21:81:21:7d:25:22:3f:0c:1b:
                    b1:f2:0a:8c:bb:98:68:0c:5c:99:3f:23:8e:13:57:
                    fa:2d:99:2b:cb:6a:82:e1:8f:09:3d:61:0c:e8:d7:
                    32:87:bd:b5:96:28:ad:dd:ee:64:49:f3:37:4f:a9:
                    06:b4:34:33:7b:d2:1e:9c:1d:f8:78:f0:df:d9:f7:
                    81:19:e6:8b:0d:9a:21:89:cb:1d:ea:66:62:fd:bb:
                    7f:b6:43:68:81:e3:39:3b:2c:2b:9d:de:0e:9d:42:
                    dd:29:95:bb:3f:01:5f:ab:2d:0c:7c:ff:72:8e:02:
                    ab:a9:9f:8f:4e:d5:ad:95:bd:37:a5:18:e1:a3:91:
                    94:61:42:93:8a:4d:7d:61:26:5f:81:9f:23:a1:e8:
                    ce:d3
                Exponent: 65537 (0x10001)
        X509v3 extensions:
            X509v3 Basic Constraints: critical
                CA:FALSE
            X509v3 Subject Key Identifier: 
                7B:5A:A4:3C:0E:72:F3:D8:79:C4:5B:6E:D4:3F:7E:F3:DC:5F:D5:4B
            X509v3 Key Usage: critical
                Digital Signature, Non Repudiation, Key Encipherment
            X509v3 Extended Key Usage: 
                TLS Web Server Authentication, TLS Web Client Authentication, Microsoft Server Gated Crypto, Netscape Server Gated Crypto, E-mail Protection
            X509v3 Authority Key Identifier: 
                keyid:50:9B:6F:74:01:E3:1A:03:57:AB:D9:D5:7D:15:64:4C:25:F3:F8:F4

            X509v3 Subject Alternative Name: 
                email:andrea.ceccanti@cnaf.infn.it
    Signature Algorithm: sha1WithRSAEncryption
         70:92:d9:b0:91:08:f7:41:72:cb:ce:ef:58:e7:54:3e:ee:1c:
         d9:d8:a5:b3:f6:0e:eb:ad:ab:f8:2b:c0:af:c9:59:ca:de:75:
         fa:35:e9:07:41:03:56:52:a2:ab:3a:51:91:d0:65:e7:eb:73:
         db:77:a1:1e:8a:8f:cb:5e:de:b5:75:b7:70:aa:30:e7:b7:10:
         f3:0e:d2:a8:91:d9:f7:78:b3:ca:bf:c6:26:c0:53:20:ad:73:
         b1:77:5f:e3:73:ea:4a:79:db:0e:8c:a1:9b:24:cd:dc:ef:6b:
         83:98:01:48:a9:24:53:b3:83:5d:24:f2:82:dc:9a:1b:cd:c7:
         83:38:22:35:95:34:61:9f:9d:78:ad:73:df:5e:11:1f:ed:5b:
         21:12:c5:25:1b:92:21:5e:14:4a:83:b1:45:6f:b0:24:d5:88:
         8e:84:49:4b:fe:90:8a:ab:63:7a:9d:5f:12:47:65:05:e4:d8:
         f7:ff:7f:7d:1f:c9:ca:68:d4:40:95:ca:92:6b:e4:ef:ab:ec:
         67:22:74:05:c4:c9:79:53:0e:28:56:f6:e9:40:b3:62:0b:fd:
         05:b3:6d:f2:68:fd:d7:6f:0e:ca:04:01:8f:2a:de:a7:c4:05:
         5e:df:d9:33:cc:a5:8d:7f:e8:80:79:0e:2f:8c:0d:4b:69:21:
         05:08:65:cf
-----BEGIN CERTIFICATE-----
MIIDoDCCAoigAwIBAgIBFDANBgkqhkiG9w0BAQUFADAtMQswCQYDVQQGEwJJVDEM
MAoGA1UECgwDSUdJMRAwDgYDVQQDDAdUZXN0IENBMB4XDTIyMTEyODE2MzUwMFoX
DTMyMTEyNTE2MzUwMFowLTELMAkGA1UEBhMCSVQxDDAKBgNVBAoMA0lHSTEQMA4G
A1UEAwwHcmV2b2tlZDCCASIwDQYJKoZIhvcNAQEBBQADggEPADCCAQoCggEBAPJk
whCrUmlrc2KsDybuw4V4KK5XNxWliHmvB7kyscoBrmVmtLp8C1wHwuMfssZJ0jqm
yeYBBXWdH3z6Mqce33nJB0lCw4mtMLKKa/CRwu4IM8o3aYpQ3z1MSniX9StO8gyC
R7O3bm104sRVfK3eIYEhfSUiPwwbsfIKjLuYaAxcmT8jjhNX+i2ZK8tqguGPCT1h
DOjXMoe9tZYord3uZEnzN0+pBrQ0M3vSHpwd+Hjw39n3gRnmiw2aIYnLHepmYv27
f7ZDaIHjOTssK53eDp1C3SmVuz8BX6stDHz/co4Cq6mfj07VrZW9N6UY4aORlGFC
k4pNfWEmX4GfI6HoztMCAwEAAaOByjCBxzAMBgNVHRMBAf8EAjAAMB0GA1UdDgQW
BBR7WqQ8DnLz2HnEW27UP37z3F/VSzAOBgNVHQ8BAf8EBAMCBeAwPgYDVR0lBDcw
NQYIKwYBBQUHAwEGCCsGAQUFBwMCBgorBgEEAYI3CgMDBglghkgBhvhCBAEGCCsG
AQUFBwMEMB8GA1UdIwQYMBaAFFCbb3QB4xoDV6vZ1X0VZEwl8/j0MCcGA1UdEQQg
MB6BHGFuZHJlYS5jZWNjYW50aUBjbmFmLmluZm4uaXQwDQYJKoZIhvcNAQEFBQAD
ggEBAHCS2bCRCPdBcsvO71jnVD7uHNnYpbP2Duutq/grwK/JWcredfo16QdBA1ZS
oqs6UZHQZefrc9t3oR6Kj8te3rV1t3CqMOe3EPMO0qiR2fd4s8q/xibAUyCtc7F3
X+Nz6kp52w6MoZskzdzva4OYAUipJFOzg10k8oLcmhvNx4M4IjWVNGGfnXitc99e
ER/tWyESxSUbkiFeFEqDsUVvsCTViI6ESUv+kIqrY3qdXxJHZQXk2Pf/f30fycpo
1ECVypJr5O+r7GcidAXEyXlTDihW9ulAs2IL/QWzbfJo/ddvDsoEAY8q3qfEBV7f
2TPMpY1/6IB5Di+MDUtpIQUIZc8=
-----END CERTIFICATE-----
