Certificate:
    Data:
        Version: 3 (0x2)
        Serial Number: 4 (0x4)
    Signature Algorithm: sha1WithRSAEncryption
        Issuer: C=IT, O=IGI, CN=Test CA
        Validity
            Not Before: Sep 26 15:20:43 2012 GMT
            Not After : Sep 24 15:20:43 2022 GMT
        Subject: C=IT, O=IGI, CN=revoked
        Subject Public Key Info:
            Public Key Algorithm: rsaEncryption
                Public-Key: (2048 bit)
                Modulus:
                    00:a0:54:52:82:ea:f0:fc:93:0c:af:f4:6b:51:31:
                    a6:66:98:9e:6d:7f:dd:87:45:69:3d:bb:64:03:59:
                    58:d9:59:16:f0:f7:7f:a2:c1:6b:27:1c:f4:69:a0:
                    1c:dd:97:47:73:8c:fe:2e:c1:fa:0b:35:fb:f0:49:
                    01:6a:a8:12:e5:39:a5:3c:00:ec:de:8e:99:12:2c:
                    e2:8c:4b:7a:5f:f1:41:7e:6c:ee:eb:44:fd:e3:b3:
                    a7:f9:72:9f:75:8a:fb:98:c0:77:b5:7c:90:58:ff:
                    0c:04:9f:c9:11:3c:71:39:de:86:df:d8:22:f2:e3:
                    7a:32:ca:cd:91:dd:7a:3e:75:7e:20:72:6e:4e:e6:
                    a3:ab:92:39:ba:7b:b7:73:35:5c:30:46:f9:d4:27:
                    60:79:ba:dd:ef:19:ee:30:15:9f:a1:76:04:a9:40:
                    94:83:03:74:4b:da:4e:b6:e9:9d:97:92:6c:39:9f:
                    64:51:fd:32:b2:b9:c8:41:e1:35:e7:86:37:86:26:
                    fe:91:26:cd:7a:f5:84:42:77:34:54:04:f4:1f:7a:
                    65:85:13:db:3a:93:40:df:b7:5f:6c:3c:1a:3a:ad:
                    af:e4:7b:94:1d:81:10:f3:29:bc:c9:2f:af:28:83:
                    f2:af:c1:74:f9:c7:88:7c:50:24:e5:e3:80:12:6d:
                    82:f3
                Exponent: 65537 (0x10001)
        X509v3 extensions:
            X509v3 Basic Constraints: critical
                CA:FALSE
            X509v3 Subject Key Identifier: 
                96:99:F9:67:14:C1:69:AD:2C:92:37:FA:9C:83:54:95:F3:39:2F:B3
            X509v3 Key Usage: critical
                Digital Signature, Non Repudiation, Key Encipherment
            X509v3 Extended Key Usage: 
                TLS Web Server Authentication, TLS Web Client Authentication, Microsoft Server Gated Crypto, Netscape Server Gated Crypto, E-mail Protection
            X509v3 Authority Key Identifier: 
                keyid:91:77:36:7B:2E:B4:69:F3:27:EA:B7:F6:08:8B:4A:23:A2:11:49:C6

            X509v3 Subject Alternative Name: 
                email:andrea.ceccanti@cnaf.infn.it
    Signature Algorithm: sha1WithRSAEncryption
         5d:3e:5d:1a:94:0a:eb:ea:30:e0:95:b3:53:9f:64:a3:b1:2f:
         aa:69:40:ca:b4:c6:c4:93:ee:96:da:66:f9:8c:59:9d:30:07:
         b6:ef:95:0b:34:f7:7b:0f:6b:5c:25:d1:16:59:e4:db:51:6a:
         5e:83:8d:41:48:d3:48:29:58:82:e7:c7:8a:23:e6:d9:97:78:
         ba:b4:af:71:b5:2a:e6:65:e3:18:2e:48:05:cc:0a:76:49:e9:
         61:e0:75:e7:40:8b:fb:1a:8c:a4:63:6e:09:07:26:40:20:33:
         ae:c7:74:01:8d:d0:d6:8e:9d:20:c5:c6:bc:71:e9:e8:db:cd:
         97:b6:f8:76:fe:92:71:8f:6a:46:5e:88:93:94:74:7c:c4:a9:
         35:d2:7d:ad:58:7c:d7:f0:a3:ec:32:84:2a:9c:88:9a:b5:b4:
         1a:88:f8:5d:e8:f6:da:15:d9:d4:a8:b3:5e:c6:24:b7:c1:ba:
         d6:06:74:c4:16:75:a6:86:de:43:5c:d4:09:e7:b3:71:41:8a:
         68:1d:e0:18:a4:e0:ed:2c:fc:6e:e9:80:08:8a:2b:a5:b8:af:
         0a:1f:f1:43:78:41:99:ca:ee:18:45:10:44:e5:3d:56:69:87:
         1e:9c:f5:50:64:fc:41:9c:11:03:a9:95:4a:ad:b7:eb:81:a0:
         2a:56:69:a8
-----BEGIN CERTIFICATE-----
MIIDoDCCAoigAwIBAgIBBDANBgkqhkiG9w0BAQUFADAtMQswCQYDVQQGEwJJVDEM
MAoGA1UECgwDSUdJMRAwDgYDVQQDDAdUZXN0IENBMB4XDTEyMDkyNjE1MjA0M1oX
DTIyMDkyNDE1MjA0M1owLTELMAkGA1UEBhMCSVQxDDAKBgNVBAoTA0lHSTEQMA4G
A1UEAxMHcmV2b2tlZDCCASIwDQYJKoZIhvcNAQEBBQADggEPADCCAQoCggEBAKBU
UoLq8PyTDK/0a1ExpmaYnm1/3YdFaT27ZANZWNlZFvD3f6LBaycc9GmgHN2XR3OM
/i7B+gs1+/BJAWqoEuU5pTwA7N6OmRIs4oxLel/xQX5s7utE/eOzp/lyn3WK+5jA
d7V8kFj/DASfyRE8cTneht/YIvLjejLKzZHdej51fiBybk7mo6uSObp7t3M1XDBG
+dQnYHm63e8Z7jAVn6F2BKlAlIMDdEvaTrbpnZeSbDmfZFH9MrK5yEHhNeeGN4Ym
/pEmzXr1hEJ3NFQE9B96ZYUT2zqTQN+3X2w8Gjqtr+R7lB2BEPMpvMkvryiD8q/B
dPnHiHxQJOXjgBJtgvMCAwEAAaOByjCBxzAMBgNVHRMBAf8EAjAAMB0GA1UdDgQW
BBSWmflnFMFprSySN/qcg1SV8zkvszAOBgNVHQ8BAf8EBAMCBeAwPgYDVR0lBDcw
NQYIKwYBBQUHAwEGCCsGAQUFBwMCBgorBgEEAYI3CgMDBglghkgBhvhCBAEGCCsG
AQUFBwMEMB8GA1UdIwQYMBaAFJF3NnsutGnzJ+q39giLSiOiEUnGMCcGA1UdEQQg
MB6BHGFuZHJlYS5jZWNjYW50aUBjbmFmLmluZm4uaXQwDQYJKoZIhvcNAQEFBQAD
ggEBAF0+XRqUCuvqMOCVs1OfZKOxL6ppQMq0xsST7pbaZvmMWZ0wB7bvlQs093sP
a1wl0RZZ5NtRal6DjUFI00gpWILnx4oj5tmXeLq0r3G1KuZl4xguSAXMCnZJ6WHg
dedAi/sajKRjbgkHJkAgM67HdAGN0NaOnSDFxrxx6ejbzZe2+Hb+knGPakZeiJOU
dHzEqTXSfa1YfNfwo+wyhCqciJq1tBqI+F3o9toV2dSos17GJLfButYGdMQWdaaG
3kNc1Anns3FBimgd4Bik4O0s/G7pgAiKK6W4rwof8UN4QZnK7hhFEETlPVZphx6c
9VBk/EGcEQOplUqtt+uBoCpWaag=
-----END CERTIFICATE-----
