Certificate:
    Data:
        Version: 3 (0x2)
        Serial Number: 12 (0xc)
    Signature Algorithm: sha1WithRSAEncryption
        Issuer: C=IT, O=IGI, CN=Test CA
        Validity
            Not Before: Sep 26 15:39:41 2012 GMT
            Not After : Sep 24 15:39:41 2022 GMT
        Subject: C=IT, O=IGI, CN=test3
        Subject Public Key Info:
            Public Key Algorithm: rsaEncryption
                Public-Key: (2048 bit)
                Modulus:
                    00:e4:36:36:a2:d7:85:b7:cb:46:7d:47:10:32:c1:
                    2f:04:fe:77:41:f0:f7:ce:95:db:b3:cc:ef:3c:f3:
                    b3:f0:8b:42:df:79:24:38:42:59:8c:47:14:0a:27:
                    a1:59:80:25:26:ab:2b:ca:f6:d0:02:bb:dc:ee:d2:
                    a8:8c:ca:2d:97:04:73:d0:12:88:90:7d:6a:3c:7e:
                    1d:d2:74:54:4d:d5:f7:8d:0e:0b:6d:31:af:dd:91:
                    af:5f:ab:ba:2a:b2:1f:f4:52:68:ad:fe:ca:d4:c9:
                    de:60:81:a4:4f:23:ba:22:39:61:8a:d0:f0:80:29:
                    cd:5f:8e:2f:84:5e:1d:6a:43:c8:44:54:fb:f0:b7:
                    4f:ed:98:57:07:63:fa:c4:e0:ad:4e:38:5b:c6:d8:
                    b2:62:28:4b:aa:e2:98:62:20:c5:be:13:f0:ea:57:
                    62:05:d6:55:18:47:a1:5e:fa:05:96:cf:e2:50:75:
                    a3:4f:41:28:d4:5c:18:4e:1e:c1:0c:d5:03:11:9b:
                    7d:fe:9e:53:6e:e4:a7:c7:4d:24:9c:37:c8:a1:76:
                    78:5f:62:bc:8b:65:a5:7a:4d:27:eb:e1:70:47:e5:
                    c9:6f:c7:fe:50:1f:96:0e:e0:e2:eb:65:9f:0c:42:
                    b9:29:46:4c:f9:20:19:9a:e7:3a:b4:ba:3e:10:24:
                    51:7d
                Exponent: 65537 (0x10001)
        X509v3 extensions:
            X509v3 Basic Constraints: critical
                CA:FALSE
            X509v3 Subject Key Identifier: 
                51:21:A4:CB:2C:73:88:CA:84:F0:54:3C:B7:23:3A:C7:8A:47:7E:29
            X509v3 Key Usage: critical
                Digital Signature, Non Repudiation, Key Encipherment
            X509v3 Extended Key Usage: 
                TLS Web Server Authentication, TLS Web Client Authentication, Microsoft Server Gated Crypto, Netscape Server Gated Crypto, E-mail Protection
            X509v3 Authority Key Identifier: 
                keyid:91:77:36:7B:2E:B4:69:F3:27:EA:B7:F6:08:8B:4A:23:A2:11:49:C6

            X509v3 Subject Alternative Name: 
                email:andrea.ceccanti@cnaf.infn.it
    Signature Algorithm: sha1WithRSAEncryption
         a4:f8:b3:20:aa:3d:81:09:7c:69:d3:d6:af:e1:84:38:47:96:
         49:1b:fa:51:db:9a:e1:1e:36:02:79:2c:73:d1:51:db:d0:6a:
         f3:fd:e7:72:8e:cf:eb:81:fc:31:0c:37:98:0e:8d:6a:f9:13:
         68:72:fb:92:34:a1:a9:de:46:c2:ef:b9:a7:d0:cf:55:f2:b7:
         96:7a:74:a3:da:79:fc:16:64:46:30:c2:a9:c3:93:94:61:1d:
         07:48:fe:61:9b:e8:03:86:0f:70:ba:be:c3:e3:0d:3e:7c:88:
         e7:c7:03:a7:ce:ee:ce:8c:21:53:e4:4b:dd:0a:20:b5:1a:d0:
         81:17:28:38:ed:c0:04:c6:07:06:e2:32:21:f7:3e:e6:4a:f8:
         3a:97:49:93:cb:81:c2:53:ef:82:d5:07:f4:28:bc:0d:2c:57:
         8e:37:c1:94:7c:55:2e:7e:a6:98:15:9f:b7:1b:a0:99:54:a5:
         f2:a0:52:64:b9:aa:4a:29:d1:6d:fb:55:00:85:e9:11:78:bb:
         fa:28:46:ac:99:37:ae:bf:8f:3c:59:01:59:3c:aa:26:7a:1c:
         0e:23:e6:09:67:c5:fc:80:30:7c:b5:af:a5:a2:a0:0a:a2:e7:
         fe:51:24:84:fe:d9:cf:c0:01:a3:23:fa:8b:b2:c5:c5:ba:cc:
         64:c0:ba:66
-----BEGIN CERTIFICATE-----
MIIDnjCCAoagAwIBAgIBDDANBgkqhkiG9w0BAQUFADAtMQswCQYDVQQGEwJJVDEM
MAoGA1UECgwDSUdJMRAwDgYDVQQDDAdUZXN0IENBMB4XDTEyMDkyNjE1Mzk0MVoX
DTIyMDkyNDE1Mzk0MVowKzELMAkGA1UEBhMCSVQxDDAKBgNVBAoTA0lHSTEOMAwG
A1UEAxMFdGVzdDMwggEiMA0GCSqGSIb3DQEBAQUAA4IBDwAwggEKAoIBAQDkNjai
14W3y0Z9RxAywS8E/ndB8PfOlduzzO8887Pwi0LfeSQ4QlmMRxQKJ6FZgCUmqyvK
9tACu9zu0qiMyi2XBHPQEoiQfWo8fh3SdFRN1feNDgttMa/dka9fq7oqsh/0Umit
/srUyd5ggaRPI7oiOWGK0PCAKc1fji+EXh1qQ8hEVPvwt0/tmFcHY/rE4K1OOFvG
2LJiKEuq4phiIMW+E/DqV2IF1lUYR6Fe+gWWz+JQdaNPQSjUXBhOHsEM1QMRm33+
nlNu5KfHTSScN8ihdnhfYryLZaV6TSfr4XBH5clvx/5QH5YO4OLrZZ8MQrkpRkz5
IBma5zq0uj4QJFF9AgMBAAGjgcowgccwDAYDVR0TAQH/BAIwADAdBgNVHQ4EFgQU
USGkyyxziMqE8FQ8tyM6x4pHfikwDgYDVR0PAQH/BAQDAgXgMD4GA1UdJQQ3MDUG
CCsGAQUFBwMBBggrBgEFBQcDAgYKKwYBBAGCNwoDAwYJYIZIAYb4QgQBBggrBgEF
BQcDBDAfBgNVHSMEGDAWgBSRdzZ7LrRp8yfqt/YIi0ojohFJxjAnBgNVHREEIDAe
gRxhbmRyZWEuY2VjY2FudGlAY25hZi5pbmZuLml0MA0GCSqGSIb3DQEBBQUAA4IB
AQCk+LMgqj2BCXxp09av4YQ4R5ZJG/pR25rhHjYCeSxz0VHb0Grz/edyjs/rgfwx
DDeYDo1q+RNocvuSNKGp3kbC77mn0M9V8reWenSj2nn8FmRGMMKpw5OUYR0HSP5h
m+gDhg9wur7D4w0+fIjnxwOnzu7OjCFT5EvdCiC1GtCBFyg47cAExgcG4jIh9z7m
Svg6l0mTy4HCU++C1Qf0KLwNLFeON8GUfFUufqaYFZ+3G6CZVKXyoFJkuapKKdFt
+1UAhekReLv6KEasmTeuv488WQFZPKomehwOI+YJZ8X8gDB8ta+loqAKouf+USSE
/tnPwAGjI/qLssXFusxkwLpm
-----END CERTIFICATE-----
