Certificate:
    Data:
        Version: 3 (0x2)
        Serial Number: 10 (0xa)
    Signature Algorithm: sha1WithRSAEncryption
        Issuer: C=IT, O=IGI, CN=Test CA
        Validity
            Not Before: Oct  1 13:16:42 2022 GMT
            Not After : Sep 28 13:16:42 2032 GMT
        Subject: C=IT, O=IGI, CN=test2
        Subject Public Key Info:
            Public Key Algorithm: rsaEncryption
                Public-Key: (2048 bit)
                Modulus:
                    00:ac:da:3e:db:a0:a9:93:e1:a0:26:64:e3:b3:9b:
                    10:d3:bc:3b:11:af:1c:63:97:11:b6:8b:f5:05:fe:
                    f5:b4:3c:07:e5:55:51:f5:66:92:c3:68:cb:b6:46:
                    b7:7f:89:49:aa:21:9f:0f:06:09:01:f2:a6:e5:a4:
                    06:a3:93:77:77:14:fa:a5:fd:2f:a5:80:cb:d5:a1:
                    70:ce:b4:bd:08:27:86:3c:57:c6:f5:5f:ab:6c:ac:
                    aa:03:37:6f:ae:fd:2d:73:41:60:c0:2b:1d:7d:6f:
                    30:f2:43:ce:bd:5e:68:6d:1e:5e:27:41:45:e1:b2:
                    85:25:04:d3:af:ae:a2:0a:e1:e6:ce:92:bc:6d:d6:
                    d4:82:af:24:fa:8d:41:79:21:29:a5:36:7e:f3:3c:
                    8e:c0:78:69:48:d7:eb:38:83:e4:36:b4:d3:3b:78:
                    b1:44:d2:9b:17:c1:dd:88:a4:70:29:16:50:d2:65:
                    af:b2:e5:e0:37:d7:e8:31:bb:5b:f8:44:4a:c5:d3:
                    32:9a:bc:2f:98:c8:40:22:36:4e:fa:e1:b0:0e:bf:
                    96:65:1f:f3:99:0f:2c:af:e0:7d:e6:ba:f8:50:2f:
                    ab:64:49:a7:58:ed:c0:08:71:2d:b4:27:ce:49:6f:
                    1e:69:54:b6:53:5b:dc:1a:1b:62:c9:7d:89:02:fb:
                    49:17
                Exponent: 65537 (0x10001)
        X509v3 extensions:
            X509v3 Basic Constraints: critical
                CA:FALSE
            X509v3 Subject Key Identifier: 
                35:BF:44:CC:30:E7:B1:38:CA:E2:44:4B:C1:AE:4D:15:75:54:FC:7C
            X509v3 Key Usage: critical
                Digital Signature, Non Repudiation, Key Encipherment
            X509v3 Extended Key Usage: 
                TLS Web Server Authentication, TLS Web Client Authentication, Microsoft Server Gated Crypto, Netscape Server Gated Crypto, E-mail Protection
            X509v3 Authority Key Identifier: 
                keyid:50:9B:6F:74:01:E3:1A:03:57:AB:D9:D5:7D:15:64:4C:25:F3:F8:F4

            X509v3 Subject Alternative Name: 
                email:andrea.ceccanti@cnaf.infn.it
    Signature Algorithm: sha1WithRSAEncryption
         50:dd:2f:fa:d2:43:cb:92:7d:53:64:eb:f3:7d:f9:a8:7d:05:
         14:e0:e9:2e:07:c8:ea:c1:fe:1f:37:56:b5:24:3a:01:ec:f0:
         86:cc:d4:1f:7d:30:33:d1:fc:e2:90:fd:57:71:bd:94:e2:54:
         e4:14:1b:dc:f2:2c:fb:32:2b:99:d2:0f:ea:7c:77:1b:70:bc:
         c0:aa:0b:c0:7c:f4:3e:e7:c3:f8:01:8a:0d:0e:d6:fd:a2:86:
         b0:b0:0f:d9:23:b8:98:a3:70:98:c2:80:e2:3f:83:c8:ea:03:
         12:79:16:b8:87:f7:e2:04:4d:3d:35:a9:42:8c:f0:24:e4:85:
         d9:9a:aa:c3:14:fe:4b:26:5c:b2:87:71:bd:65:e8:15:e0:0e:
         33:5d:45:21:56:02:fe:8b:eb:44:c3:01:21:c1:df:f1:a2:8e:
         9d:6f:48:29:c3:32:4c:81:21:bd:30:d0:dd:6d:d0:07:75:d7:
         95:8a:28:5c:78:7f:80:bd:88:4d:c3:91:36:e6:60:a4:c4:77:
         ab:68:1d:eb:e0:c4:47:32:36:55:34:80:ec:f9:f1:f8:dd:5f:
         56:4c:b6:39:d4:48:fc:95:8a:31:d2:43:05:71:46:34:96:a1:
         82:a7:08:fa:6a:51:02:6f:4d:9f:6a:8a:c5:63:89:c1:f3:6e:
         6c:16:8f:8a
-----BEGIN CERTIFICATE-----
MIIDnjCCAoagAwIBAgIBCjANBgkqhkiG9w0BAQUFADAtMQswCQYDVQQGEwJJVDEM
MAoGA1UECgwDSUdJMRAwDgYDVQQDDAdUZXN0IENBMB4XDTIyMTAwMTEzMTY0MloX
DTMyMDkyODEzMTY0MlowKzELMAkGA1UEBhMCSVQxDDAKBgNVBAoMA0lHSTEOMAwG
A1UEAwwFdGVzdDIwggEiMA0GCSqGSIb3DQEBAQUAA4IBDwAwggEKAoIBAQCs2j7b
oKmT4aAmZOOzmxDTvDsRrxxjlxG2i/UF/vW0PAflVVH1ZpLDaMu2Rrd/iUmqIZ8P
BgkB8qblpAajk3d3FPql/S+lgMvVoXDOtL0IJ4Y8V8b1X6tsrKoDN2+u/S1zQWDA
Kx19bzDyQ869XmhtHl4nQUXhsoUlBNOvrqIK4ebOkrxt1tSCryT6jUF5ISmlNn7z
PI7AeGlI1+s4g+Q2tNM7eLFE0psXwd2IpHApFlDSZa+y5eA31+gxu1v4RErF0zKa
vC+YyEAiNk764bAOv5ZlH/OZDyyv4H3muvhQL6tkSadY7cAIcS20J85Jbx5pVLZT
W9waG2LJfYkC+0kXAgMBAAGjgcowgccwDAYDVR0TAQH/BAIwADAdBgNVHQ4EFgQU
Nb9EzDDnsTjK4kRLwa5NFXVU/HwwDgYDVR0PAQH/BAQDAgXgMD4GA1UdJQQ3MDUG
CCsGAQUFBwMBBggrBgEFBQcDAgYKKwYBBAGCNwoDAwYJYIZIAYb4QgQBBggrBgEF
BQcDBDAfBgNVHSMEGDAWgBRQm290AeMaA1er2dV9FWRMJfP49DAnBgNVHREEIDAe
gRxhbmRyZWEuY2VjY2FudGlAY25hZi5pbmZuLml0MA0GCSqGSIb3DQEBBQUAA4IB
AQBQ3S/60kPLkn1TZOvzffmofQUU4OkuB8jqwf4fN1a1JDoB7PCGzNQffTAz0fzi
kP1Xcb2U4lTkFBvc8iz7MiuZ0g/qfHcbcLzAqgvAfPQ+58P4AYoNDtb9ooawsA/Z
I7iYo3CYwoDiP4PI6gMSeRa4h/fiBE09NalCjPAk5IXZmqrDFP5LJlyyh3G9ZegV
4A4zXUUhVgL+i+tEwwEhwd/xoo6db0gpwzJMgSG9MNDdbdAHddeViihceH+AvYhN
w5E25mCkxHeraB3r4MRHMjZVNIDs+fH43V9WTLY51Ej8lYox0kMFcUY0lqGCpwj6
alECb02faorFY4nB825sFo+K
-----END CERTIFICATE-----
