Certificate:
    Data:
        Version: 3 (0x2)
        Serial Number: 13 (0xd)
    Signature Algorithm: sha1WithRSAEncryption
        Issuer: C=IT, O=IGI, CN=Test CA
        Validity
            Not Before: Sep 26 15:39:44 2012 GMT
            Not After : Sep 24 15:39:44 2022 GMT
        Subject: C=IT, O=IGI, CN=test4
        Subject Public Key Info:
            Public Key Algorithm: rsaEncryption
                Public-Key: (2048 bit)
                Modulus:
                    00:a5:3e:06:e7:b1:ae:21:17:f8:03:4a:59:e7:f4:
                    00:f7:78:9d:e4:67:10:a6:60:7c:e9:c8:28:71:85:
                    60:45:c5:a6:fd:2b:c5:ba:a1:48:0f:9f:1c:06:5b:
                    4b:15:af:71:9c:eb:b2:a4:6b:48:1d:f1:06:00:db:
                    39:f9:dc:a0:8c:ab:76:ea:18:c9:7a:10:f5:18:b5:
                    83:60:37:17:76:1f:d8:62:1e:33:6d:49:6a:cf:d2:
                    e3:c2:e7:a4:ff:39:27:39:66:44:b4:98:03:a6:b4:
                    01:5a:27:bb:06:2c:23:e6:14:14:0d:ff:32:9e:70:
                    da:2a:73:3f:64:3a:46:71:99:e6:79:44:5c:70:7b:
                    28:09:e9:af:20:57:21:7b:33:15:96:62:dd:d4:a7:
                    10:62:42:ef:a9:ee:d4:21:0e:17:33:98:84:ac:95:
                    c3:b6:f3:41:ab:42:51:e6:1a:6a:91:ad:16:34:ec:
                    0a:44:99:d0:61:6d:da:94:dc:a5:69:34:3f:20:f7:
                    1e:5a:8f:8f:60:74:00:f2:96:85:68:57:80:b8:18:
                    37:22:c2:e7:a5:57:c9:3a:a3:7b:ea:32:d2:c2:53:
                    b9:e3:b6:28:c4:66:4c:91:ae:94:cc:db:91:e3:f9:
                    f1:e6:f2:86:08:8e:59:c7:98:99:f8:10:17:ad:71:
                    be:df
                Exponent: 65537 (0x10001)
        X509v3 extensions:
            X509v3 Basic Constraints: critical
                CA:FALSE
            X509v3 Subject Key Identifier: 
                5E:7A:D7:CC:5A:B6:BE:8C:1A:F1:54:08:EF:1B:AC:65:F7:EC:72:96
            X509v3 Key Usage: critical
                Digital Signature, Non Repudiation, Key Encipherment
            X509v3 Extended Key Usage: 
                TLS Web Server Authentication, TLS Web Client Authentication, Microsoft Server Gated Crypto, Netscape Server Gated Crypto, E-mail Protection
            X509v3 Authority Key Identifier: 
                keyid:91:77:36:7B:2E:B4:69:F3:27:EA:B7:F6:08:8B:4A:23:A2:11:49:C6

            X509v3 Subject Alternative Name: 
                email:andrea.ceccanti@cnaf.infn.it
    Signature Algorithm: sha1WithRSAEncryption
         14:81:3e:81:e9:8d:b6:6d:94:1f:f2:a1:46:1e:72:1c:4f:e8:
         60:e5:2e:39:01:b2:a8:dd:2f:53:35:16:56:2e:58:2c:a3:34:
         c3:af:d5:c2:0a:10:2b:aa:20:fc:f7:1c:82:f3:60:90:65:30:
         82:02:2f:36:fc:bf:04:f3:48:a0:ad:11:5c:ea:d6:b0:69:96:
         04:e4:f1:0b:ec:0f:bd:1b:45:36:52:6b:01:47:ab:42:36:75:
         3f:6f:cb:fe:6f:63:2d:9c:bf:72:f3:18:75:d4:88:1b:3d:40:
         9d:ec:b5:90:e8:d1:88:98:3a:3f:32:95:03:92:11:ef:e2:81:
         15:4d:35:a5:1b:d8:82:2d:b5:e4:8b:7b:a9:b9:65:8a:bf:24:
         a3:02:b5:5c:54:a6:ed:7b:49:40:6a:e3:bc:a1:f0:99:01:e5:
         eb:8d:d9:2b:e1:d9:87:59:a5:86:ce:b2:b5:55:74:2b:47:97:
         a1:60:0a:0a:ad:66:82:8a:db:98:b5:18:37:97:82:46:bb:4e:
         57:69:d2:95:05:40:1c:13:b3:da:fc:bd:07:a6:ad:5a:b6:c6:
         21:a8:4f:59:2b:0f:2b:8f:07:f3:0e:28:8c:01:60:37:38:ff:
         f6:ed:33:20:fa:ad:77:80:d1:44:79:98:e2:2d:b2:30:fc:8b:
         e5:20:be:2f
-----BEGIN CERTIFICATE-----
MIIDnjCCAoagAwIBAgIBDTANBgkqhkiG9w0BAQUFADAtMQswCQYDVQQGEwJJVDEM
MAoGA1UECgwDSUdJMRAwDgYDVQQDDAdUZXN0IENBMB4XDTEyMDkyNjE1Mzk0NFoX
DTIyMDkyNDE1Mzk0NFowKzELMAkGA1UEBhMCSVQxDDAKBgNVBAoTA0lHSTEOMAwG
A1UEAxMFdGVzdDQwggEiMA0GCSqGSIb3DQEBAQUAA4IBDwAwggEKAoIBAQClPgbn
sa4hF/gDSlnn9AD3eJ3kZxCmYHzpyChxhWBFxab9K8W6oUgPnxwGW0sVr3Gc67Kk
a0gd8QYA2zn53KCMq3bqGMl6EPUYtYNgNxd2H9hiHjNtSWrP0uPC56T/OSc5ZkS0
mAOmtAFaJ7sGLCPmFBQN/zKecNoqcz9kOkZxmeZ5RFxweygJ6a8gVyF7MxWWYt3U
pxBiQu+p7tQhDhczmISslcO280GrQlHmGmqRrRY07ApEmdBhbdqU3KVpND8g9x5a
j49gdADyloVoV4C4GDciwuelV8k6o3vqMtLCU7njtijEZkyRrpTM25Hj+fHm8oYI
jlnHmJn4EBetcb7fAgMBAAGjgcowgccwDAYDVR0TAQH/BAIwADAdBgNVHQ4EFgQU
XnrXzFq2vowa8VQI7xusZffscpYwDgYDVR0PAQH/BAQDAgXgMD4GA1UdJQQ3MDUG
CCsGAQUFBwMBBggrBgEFBQcDAgYKKwYBBAGCNwoDAwYJYIZIAYb4QgQBBggrBgEF
BQcDBDAfBgNVHSMEGDAWgBSRdzZ7LrRp8yfqt/YIi0ojohFJxjAnBgNVHREEIDAe
gRxhbmRyZWEuY2VjY2FudGlAY25hZi5pbmZuLml0MA0GCSqGSIb3DQEBBQUAA4IB
AQAUgT6B6Y22bZQf8qFGHnIcT+hg5S45AbKo3S9TNRZWLlgsozTDr9XCChArqiD8
9xyC82CQZTCCAi82/L8E80igrRFc6tawaZYE5PEL7A+9G0U2UmsBR6tCNnU/b8v+
b2MtnL9y8xh11IgbPUCd7LWQ6NGImDo/MpUDkhHv4oEVTTWlG9iCLbXki3upuWWK
vySjArVcVKbte0lAauO8ofCZAeXrjdkr4dmHWaWGzrK1VXQrR5ehYAoKrWaCituY
tRg3l4JGu05XadKVBUAcE7Pa/L0Hpq1atsYhqE9ZKw8rjwfzDiiMAWA3OP/27TMg
+q13gNFEeZjiLbIw/IvlIL4v
-----END CERTIFICATE-----
