Certificate:
    Data:
        Version: 3 (0x2)
        Serial Number: 11 (0xb)
    Signature Algorithm: sha1WithRSAEncryption
        Issuer: C=IT, O=IGI, CN=Test CA
        Validity
            Not Before: Oct  1 13:16:49 2022 GMT
            Not After : Sep 28 13:16:49 2032 GMT
        Subject: C=IT, O=IGI, CN=test3
        Subject Public Key Info:
            Public Key Algorithm: rsaEncryption
                Public-Key: (2048 bit)
                Modulus:
                    00:a7:71:b0:d3:4e:86:7b:68:04:68:82:0b:dc:0b:
                    2d:f2:05:be:7b:72:d3:eb:d5:36:39:19:e4:27:c4:
                    79:31:58:0e:90:d7:5b:49:e4:c3:72:37:0b:7b:1d:
                    a6:84:3e:93:56:f9:3d:fb:be:ed:d8:b1:37:45:df:
                    e9:f6:1f:39:ca:e2:0d:8a:7e:b5:65:a1:3f:db:21:
                    bc:24:4c:6d:c3:09:91:f3:b7:51:32:be:ab:a9:1c:
                    d7:5e:ae:d0:d7:9c:aa:9c:d4:15:cb:25:cd:65:a8:
                    76:19:7c:2f:54:9f:02:7e:0b:0b:5e:06:d3:ed:72:
                    eb:37:c6:70:91:d4:15:74:8d:3f:c6:18:d1:d6:72:
                    62:84:63:c3:12:b6:20:f4:e4:b8:bd:94:e4:1a:9c:
                    d5:07:82:38:2b:c4:72:34:a2:0c:38:ce:1a:05:54:
                    9d:68:60:28:fa:cc:bf:62:b7:8a:3f:4c:92:c3:41:
                    8c:2b:35:c0:28:b6:f2:b6:03:1b:8f:f0:2d:c1:20:
                    9f:01:14:05:5c:34:cc:5c:5b:7f:90:b3:d4:01:0a:
                    03:bc:35:25:ae:d5:97:c7:1d:79:60:01:78:e2:f0:
                    6b:6d:cf:1f:70:f2:17:28:49:b6:83:1a:f1:d7:62:
                    e1:6e:71:41:d8:15:65:e9:8e:ba:a1:d5:1f:6e:3a:
                    bb:65
                Exponent: 65537 (0x10001)
        X509v3 extensions:
            X509v3 Basic Constraints: critical
                CA:FALSE
            X509v3 Subject Key Identifier: 
                88:64:AA:30:E7:1B:0A:8D:21:92:73:BA:6C:94:75:F2:49:E5:44:F0
            X509v3 Key Usage: critical
                Digital Signature, Non Repudiation, Key Encipherment
            X509v3 Extended Key Usage: 
                TLS Web Server Authentication, TLS Web Client Authentication, Microsoft Server Gated Crypto, Netscape Server Gated Crypto, E-mail Protection
            X509v3 Authority Key Identifier: 
                keyid:50:9B:6F:74:01:E3:1A:03:57:AB:D9:D5:7D:15:64:4C:25:F3:F8:F4

            X509v3 Subject Alternative Name: 
                email:andrea.ceccanti@cnaf.infn.it
    Signature Algorithm: sha1WithRSAEncryption
         9a:ec:68:0c:d1:99:73:86:29:77:94:85:24:77:fa:45:64:77:
         af:2e:fa:63:65:5e:a2:10:b1:f4:00:dd:e4:3c:8a:97:03:22:
         d6:f7:4f:da:4d:38:1a:bf:34:c7:fa:13:bb:bd:91:83:3c:a6:
         3c:7f:96:b6:57:b8:3e:4e:c8:ba:e6:9c:bf:34:fd:c9:96:2e:
         e6:a2:ce:40:4a:af:32:2a:32:6d:05:18:06:46:9a:1a:64:b4:
         69:ad:2d:ad:3d:3b:9b:fb:7a:da:50:7e:15:06:28:5f:03:37:
         43:48:0a:d6:05:2e:d9:fe:42:95:81:cc:47:27:55:94:5b:58:
         1f:c9:8e:68:6f:80:09:67:f1:47:5f:03:35:11:7b:c5:70:75:
         c3:92:e0:58:a5:65:ea:dc:32:64:6e:bb:60:97:9d:17:44:01:
         c8:61:89:68:1b:3a:ee:aa:21:61:d9:42:91:56:a2:0a:37:1f:
         90:95:41:2d:94:a5:b7:97:33:cb:f0:3e:cc:d8:e8:58:6a:33:
         f7:b6:49:39:e9:da:d8:1d:0c:18:7c:ce:42:39:10:ab:0f:e6:
         21:4e:86:b0:00:7b:ac:94:ea:9f:d5:73:db:c4:cc:b9:6d:f2:
         23:c5:ab:1d:4e:9d:41:0e:6a:a0:6d:eb:4a:50:02:33:42:0d:
         ba:e5:57:e3
-----BEGIN CERTIFICATE-----
MIIDnjCCAoagAwIBAgIBCzANBgkqhkiG9w0BAQUFADAtMQswCQYDVQQGEwJJVDEM
MAoGA1UECgwDSUdJMRAwDgYDVQQDDAdUZXN0IENBMB4XDTIyMTAwMTEzMTY0OVoX
DTMyMDkyODEzMTY0OVowKzELMAkGA1UEBhMCSVQxDDAKBgNVBAoMA0lHSTEOMAwG
A1UEAwwFdGVzdDMwggEiMA0GCSqGSIb3DQEBAQUAA4IBDwAwggEKAoIBAQCncbDT
ToZ7aARoggvcCy3yBb57ctPr1TY5GeQnxHkxWA6Q11tJ5MNyNwt7HaaEPpNW+T37
vu3YsTdF3+n2HznK4g2KfrVloT/bIbwkTG3DCZHzt1EyvqupHNdertDXnKqc1BXL
Jc1lqHYZfC9UnwJ+CwteBtPtcus3xnCR1BV0jT/GGNHWcmKEY8MStiD05Li9lOQa
nNUHgjgrxHI0ogw4zhoFVJ1oYCj6zL9it4o/TJLDQYwrNcAotvK2AxuP8C3BIJ8B
FAVcNMxcW3+Qs9QBCgO8NSWu1ZfHHXlgAXji8Gttzx9w8hcoSbaDGvHXYuFucUHY
FWXpjrqh1R9uOrtlAgMBAAGjgcowgccwDAYDVR0TAQH/BAIwADAdBgNVHQ4EFgQU
iGSqMOcbCo0hknO6bJR18knlRPAwDgYDVR0PAQH/BAQDAgXgMD4GA1UdJQQ3MDUG
CCsGAQUFBwMBBggrBgEFBQcDAgYKKwYBBAGCNwoDAwYJYIZIAYb4QgQBBggrBgEF
BQcDBDAfBgNVHSMEGDAWgBRQm290AeMaA1er2dV9FWRMJfP49DAnBgNVHREEIDAe
gRxhbmRyZWEuY2VjY2FudGlAY25hZi5pbmZuLml0MA0GCSqGSIb3DQEBBQUAA4IB
AQCa7GgM0Zlzhil3lIUkd/pFZHevLvpjZV6iELH0AN3kPIqXAyLW90/aTTgavzTH
+hO7vZGDPKY8f5a2V7g+Tsi65py/NP3Jli7mos5ASq8yKjJtBRgGRpoaZLRprS2t
PTub+3raUH4VBihfAzdDSArWBS7Z/kKVgcxHJ1WUW1gfyY5ob4AJZ/FHXwM1EXvF
cHXDkuBYpWXq3DJkbrtgl50XRAHIYYloGzruqiFh2UKRVqIKNx+QlUEtlKW3lzPL
8D7M2OhYajP3tkk56drYHQwYfM5CORCrD+YhToawAHuslOqf1XPbxMy5bfIjxasd
Tp1BDmqgbetKUAIzQg265Vfj
-----END CERTIFICATE-----
