Certificate:
    Data:
        Version: 3 (0x2)
        Serial Number: 12 (0xc)
    Signature Algorithm: sha1WithRSAEncryption
        Issuer: C=IT, O=IGI, CN=Test CA
        Validity
            Not Before: Oct  1 13:17:01 2022 GMT
            Not After : Sep 28 13:17:01 2032 GMT
        Subject: C=IT, O=IGI, CN=test4
        Subject Public Key Info:
            Public Key Algorithm: rsaEncryption
                Public-Key: (2048 bit)
                Modulus:
                    00:f1:de:b2:d1:82:f6:89:44:3c:34:37:3a:17:af:
                    aa:99:c3:9f:e0:c7:3d:cd:cc:94:06:94:6c:9f:77:
                    da:56:44:4a:2f:3e:2c:b3:96:b2:e3:5a:23:87:25:
                    65:6a:2f:28:19:a4:b7:69:34:2c:af:09:7b:37:b0:
                    3c:39:a6:d4:89:c7:06:76:12:e1:45:24:f8:59:44:
                    39:bc:dd:2a:9e:f5:4b:09:06:7e:90:3b:58:52:26:
                    45:0c:36:ff:5e:50:72:d3:2f:29:e0:f9:3e:de:c7:
                    36:85:6f:48:13:20:fc:ae:34:9f:9d:f2:e8:ce:46:
                    91:6d:5c:52:a2:32:a7:1a:7b:9c:0f:c4:aa:a1:5e:
                    59:5f:33:28:ea:93:81:67:60:af:c7:32:fd:6a:4e:
                    51:6f:5f:2a:b1:63:1a:1f:3f:38:31:bd:82:a1:11:
                    92:c7:d9:be:3a:a3:e1:7a:db:b0:4a:c6:d7:0b:e7:
                    35:d6:d5:1b:6c:52:5e:89:31:11:11:00:3e:fb:27:
                    3b:e4:d3:be:00:24:4b:55:a2:b5:8b:ba:c5:b9:3c:
                    d1:0b:2c:f3:bd:7d:58:93:60:20:ac:9c:21:d4:9c:
                    9d:a6:88:5f:e0:9d:c7:d2:85:de:3f:cc:f3:cb:0d:
                    e1:7b:6b:a7:fd:29:db:db:aa:11:e0:81:ea:d4:14:
                    ff:8b
                Exponent: 65537 (0x10001)
        X509v3 extensions:
            X509v3 Basic Constraints: critical
                CA:FALSE
            X509v3 Subject Key Identifier: 
                03:8C:AA:01:86:06:AD:E5:FA:B9:9D:F9:03:73:70:A3:F9:74:5A:60
            X509v3 Key Usage: critical
                Digital Signature, Non Repudiation, Key Encipherment
            X509v3 Extended Key Usage: 
                TLS Web Server Authentication, TLS Web Client Authentication, Microsoft Server Gated Crypto, Netscape Server Gated Crypto, E-mail Protection
            X509v3 Authority Key Identifier: 
                keyid:50:9B:6F:74:01:E3:1A:03:57:AB:D9:D5:7D:15:64:4C:25:F3:F8:F4

            X509v3 Subject Alternative Name: 
                email:andrea.ceccanti@cnaf.infn.it
    Signature Algorithm: sha1WithRSAEncryption
         73:d3:3a:cf:6b:ad:c2:06:a3:71:be:74:4d:71:47:5c:89:da:
         c4:e0:cb:a9:a8:8a:f2:31:44:72:42:15:e2:99:4e:de:3e:02:
         63:1e:ab:d5:f4:f6:8b:93:f0:c5:43:d4:bb:b4:2b:6b:c5:1f:
         00:aa:77:dc:a3:5f:cf:a8:52:38:07:d4:ae:2a:3c:a0:3f:0d:
         1a:46:41:bf:e3:75:fb:25:38:e6:f8:26:e1:ec:41:e6:7f:52:
         14:b4:6b:c4:ae:a0:4e:e2:ea:01:b8:84:34:31:70:d2:2c:01:
         36:1e:ab:9a:65:f0:cf:98:88:3b:dd:22:95:90:5a:60:a9:32:
         66:75:22:ab:cb:cc:4e:8b:75:07:ad:c8:78:84:8b:6a:ee:5c:
         8a:a8:45:35:df:9e:6d:fd:1f:f0:43:25:2b:9e:e2:47:46:c8:
         dc:f5:47:85:b7:f0:f9:be:93:d1:c7:23:85:f4:2c:99:d1:fd:
         a7:a7:9a:bb:91:74:c5:25:80:b8:4c:50:23:06:31:47:59:0a:
         01:40:e6:9d:56:5b:42:37:33:71:4c:09:05:56:35:f2:06:f7:
         ac:fc:61:d0:05:e4:58:3b:e1:ea:07:8b:e2:bc:1a:7b:89:7b:
         1d:01:d2:c4:01:a0:f4:15:15:db:9c:d1:0b:c7:2a:dd:fc:02:
         4f:80:89:27
-----BEGIN CERTIFICATE-----
MIIDnjCCAoagAwIBAgIBDDANBgkqhkiG9w0BAQUFADAtMQswCQYDVQQGEwJJVDEM
MAoGA1UECgwDSUdJMRAwDgYDVQQDDAdUZXN0IENBMB4XDTIyMTAwMTEzMTcwMVoX
DTMyMDkyODEzMTcwMVowKzELMAkGA1UEBhMCSVQxDDAKBgNVBAoMA0lHSTEOMAwG
A1UEAwwFdGVzdDQwggEiMA0GCSqGSIb3DQEBAQUAA4IBDwAwggEKAoIBAQDx3rLR
gvaJRDw0NzoXr6qZw5/gxz3NzJQGlGyfd9pWREovPiyzlrLjWiOHJWVqLygZpLdp
NCyvCXs3sDw5ptSJxwZ2EuFFJPhZRDm83Sqe9UsJBn6QO1hSJkUMNv9eUHLTLyng
+T7exzaFb0gTIPyuNJ+d8ujORpFtXFKiMqcae5wPxKqhXllfMyjqk4FnYK/HMv1q
TlFvXyqxYxofPzgxvYKhEZLH2b46o+F627BKxtcL5zXW1RtsUl6JMRERAD77Jzvk
074AJEtVorWLusW5PNELLPO9fViTYCCsnCHUnJ2miF/gncfShd4/zPPLDeF7a6f9
KdvbqhHggerUFP+LAgMBAAGjgcowgccwDAYDVR0TAQH/BAIwADAdBgNVHQ4EFgQU
A4yqAYYGreX6uZ35A3Nwo/l0WmAwDgYDVR0PAQH/BAQDAgXgMD4GA1UdJQQ3MDUG
CCsGAQUFBwMBBggrBgEFBQcDAgYKKwYBBAGCNwoDAwYJYIZIAYb4QgQBBggrBgEF
BQcDBDAfBgNVHSMEGDAWgBRQm290AeMaA1er2dV9FWRMJfP49DAnBgNVHREEIDAe
gRxhbmRyZWEuY2VjY2FudGlAY25hZi5pbmZuLml0MA0GCSqGSIb3DQEBBQUAA4IB
AQBz0zrPa63CBqNxvnRNcUdcidrE4MupqIryMURyQhXimU7ePgJjHqvV9PaLk/DF
Q9S7tCtrxR8Aqnfco1/PqFI4B9SuKjygPw0aRkG/43X7JTjm+Cbh7EHmf1IUtGvE
rqBO4uoBuIQ0MXDSLAE2HquaZfDPmIg73SKVkFpgqTJmdSKry8xOi3UHrch4hItq
7lyKqEU1355t/R/wQyUrnuJHRsjc9UeFt/D5vpPRxyOF9CyZ0f2np5q7kXTFJYC4
TFAjBjFHWQoBQOadVltCNzNxTAkFVjXyBves/GHQBeRYO+HqB4vivBp7iXsdAdLE
AaD0FRXbnNELxyrd/AJPgIkn
-----END CERTIFICATE-----
