Certificate:
    Data:
        Version: 3 (0x2)
        Serial Number: 11 (0xb)
    Signature Algorithm: sha1WithRSAEncryption
        Issuer: C=IT, O=IGI, CN=Test CA
        Validity
            Not Before: Sep 26 15:39:38 2012 GMT
            Not After : Sep 24 15:39:38 2022 GMT
        Subject: C=IT, O=IGI, CN=test2
        Subject Public Key Info:
            Public Key Algorithm: rsaEncryption
                Public-Key: (2048 bit)
                Modulus:
                    00:c4:61:8c:28:7a:ae:6e:71:71:ac:21:9a:88:e5:
                    5d:f4:3a:61:19:4c:bc:f3:dd:30:ad:15:2a:7e:0d:
                    66:c5:1c:07:a2:89:93:4d:92:d2:b8:e2:e7:47:57:
                    e9:30:4e:34:b1:1d:35:09:3f:d4:48:bc:20:08:32:
                    08:2d:be:26:de:b1:7a:d3:a7:55:07:00:5e:a9:d5:
                    dd:86:69:49:94:fa:67:3f:cb:bc:d1:11:2c:6e:49:
                    7c:7e:4a:a5:82:c0:13:95:c4:ec:e3:0e:19:bd:a1:
                    69:60:dd:34:8d:72:d5:76:aa:fd:07:47:6b:7c:86:
                    c9:df:b1:04:a1:50:bc:1a:50:99:90:67:57:c1:7c:
                    33:7a:1c:be:48:4d:ee:fb:a6:d5:c1:f3:81:f3:30:
                    09:8d:bf:47:24:a1:09:95:1a:d9:55:86:86:ac:a6:
                    94:e0:32:1a:16:bc:14:a0:b9:3d:45:1b:0e:c0:fd:
                    af:19:cd:06:55:f2:b0:b5:04:ff:f5:2d:9b:51:8a:
                    d1:e6:b2:d1:2b:53:25:0b:06:34:1e:92:9b:b7:56:
                    11:85:24:b0:85:0f:77:dc:ca:3a:01:2a:c2:31:0a:
                    6e:b6:36:1c:c7:2c:e1:7c:44:4f:a4:5b:4e:4c:44:
                    6a:d4:bb:4d:3b:0a:e5:77:c8:20:d9:3a:2c:48:03:
                    12:95
                Exponent: 65537 (0x10001)
        X509v3 extensions:
            X509v3 Basic Constraints: critical
                CA:FALSE
            X509v3 Subject Key Identifier: 
                5C:D9:0D:FE:1B:FE:68:1A:FA:86:A3:6A:62:6D:55:6A:21:00:BE:97
            X509v3 Key Usage: critical
                Digital Signature, Non Repudiation, Key Encipherment
            X509v3 Extended Key Usage: 
                TLS Web Server Authentication, TLS Web Client Authentication, Microsoft Server Gated Crypto, Netscape Server Gated Crypto, E-mail Protection
            X509v3 Authority Key Identifier: 
                keyid:91:77:36:7B:2E:B4:69:F3:27:EA:B7:F6:08:8B:4A:23:A2:11:49:C6

            X509v3 Subject Alternative Name: 
                email:andrea.ceccanti@cnaf.infn.it
    Signature Algorithm: sha1WithRSAEncryption
         4e:6a:f9:88:45:c0:6a:5a:71:85:99:c1:29:f3:32:7e:71:1d:
         e4:d3:65:1c:33:45:e0:ef:fb:c0:9f:12:7b:27:38:a7:88:c2:
         4b:c8:1a:f1:01:a5:b5:8f:67:fa:a8:9a:da:a7:da:ca:f9:ab:
         a4:86:8b:c8:9d:34:ab:75:62:8c:eb:2e:5c:79:8d:30:ee:ee:
         27:b2:ef:18:de:54:5f:de:0f:5e:ef:ae:a2:b9:8d:cd:7d:f9:
         43:64:4d:8d:b3:72:6e:1d:99:63:c3:1e:cd:18:43:ab:af:f5:
         a2:e5:0d:60:f4:95:49:70:af:80:f9:a0:77:bc:f2:e8:4b:f5:
         1c:f7:98:9b:76:a2:4a:1d:51:b4:ad:c2:8b:9e:a4:7a:01:5b:
         f3:c8:fc:49:b6:9c:24:e3:2c:b8:57:e8:ee:05:98:9b:d9:22:
         26:05:62:7b:0b:95:47:b8:72:cc:00:ec:6d:35:5f:38:08:85:
         e9:76:f2:ca:7c:0d:41:8d:fd:d6:50:ca:dc:be:13:74:dc:be:
         f6:8f:d2:11:d1:61:19:94:53:1f:61:bc:6f:d6:06:cd:6e:8f:
         9f:85:5a:37:8a:d1:c8:de:54:e5:d0:ad:01:0f:96:ce:3f:42:
         ea:b4:04:4b:81:9f:73:15:59:71:58:77:0a:52:a4:38:d5:94:
         17:36:0e:d4
-----BEGIN CERTIFICATE-----
MIIDnjCCAoagAwIBAgIBCzANBgkqhkiG9w0BAQUFADAtMQswCQYDVQQGEwJJVDEM
MAoGA1UECgwDSUdJMRAwDgYDVQQDDAdUZXN0IENBMB4XDTEyMDkyNjE1MzkzOFoX
DTIyMDkyNDE1MzkzOFowKzELMAkGA1UEBhMCSVQxDDAKBgNVBAoTA0lHSTEOMAwG
A1UEAxMFdGVzdDIwggEiMA0GCSqGSIb3DQEBAQUAA4IBDwAwggEKAoIBAQDEYYwo
eq5ucXGsIZqI5V30OmEZTLzz3TCtFSp+DWbFHAeiiZNNktK44udHV+kwTjSxHTUJ
P9RIvCAIMggtvibesXrTp1UHAF6p1d2GaUmU+mc/y7zRESxuSXx+SqWCwBOVxOzj
Dhm9oWlg3TSNctV2qv0HR2t8hsnfsQShULwaUJmQZ1fBfDN6HL5ITe77ptXB84Hz
MAmNv0ckoQmVGtlVhoasppTgMhoWvBSguT1FGw7A/a8ZzQZV8rC1BP/1LZtRitHm
stErUyULBjQekpu3VhGFJLCFD3fcyjoBKsIxCm62NhzHLOF8RE+kW05MRGrUu007
CuV3yCDZOixIAxKVAgMBAAGjgcowgccwDAYDVR0TAQH/BAIwADAdBgNVHQ4EFgQU
XNkN/hv+aBr6hqNqYm1VaiEAvpcwDgYDVR0PAQH/BAQDAgXgMD4GA1UdJQQ3MDUG
CCsGAQUFBwMBBggrBgEFBQcDAgYKKwYBBAGCNwoDAwYJYIZIAYb4QgQBBggrBgEF
BQcDBDAfBgNVHSMEGDAWgBSRdzZ7LrRp8yfqt/YIi0ojohFJxjAnBgNVHREEIDAe
gRxhbmRyZWEuY2VjY2FudGlAY25hZi5pbmZuLml0MA0GCSqGSIb3DQEBBQUAA4IB
AQBOavmIRcBqWnGFmcEp8zJ+cR3k02UcM0Xg7/vAnxJ7JziniMJLyBrxAaW1j2f6
qJrap9rK+aukhovInTSrdWKM6y5ceY0w7u4nsu8Y3lRf3g9e766iuY3NfflDZE2N
s3JuHZljwx7NGEOrr/Wi5Q1g9JVJcK+A+aB3vPLoS/Uc95ibdqJKHVG0rcKLnqR6
AVvzyPxJtpwk4yy4V+juBZib2SImBWJ7C5VHuHLMAOxtNV84CIXpdvLKfA1Bjf3W
UMrcvhN03L72j9IR0WEZlFMfYbxv1gbNbo+fhVo3itHI3lTl0K0BD5bOP0LqtARL
gZ9zFVlxWHcKUqQ41ZQXNg7U
-----END CERTIFICATE-----
