Certificate:
    Data:
        Version: 3 (0x2)
        Serial Number: 9 (0x9)
    Signature Algorithm: sha1WithRSAEncryption
        Issuer: C=IT, O=IGI, CN=Test CA
        Validity
            Not Before: Oct  1 13:16:38 2022 GMT
            Not After : Sep 28 13:16:38 2032 GMT
        Subject: C=IT, O=IGI, CN=test1
        Subject Public Key Info:
            Public Key Algorithm: rsaEncryption
                Public-Key: (2048 bit)
                Modulus:
                    00:e6:23:18:81:02:3d:c4:7f:90:e4:82:81:5b:7e:
                    f3:41:60:f6:cb:3e:b3:d5:ad:5a:f5:5c:67:4b:f4:
                    07:8b:26:e2:fe:57:dd:8d:2b:a5:4e:a3:02:69:b9:
                    f0:15:5d:2b:1d:14:05:72:85:e2:b2:03:08:63:1f:
                    dc:34:ac:a9:e0:d5:90:14:67:80:b7:20:d5:f8:a5:
                    63:a1:73:71:6f:a2:98:33:57:d7:da:87:27:f4:26:
                    60:19:11:36:1a:47:c7:a9:ec:c2:8d:80:6d:28:cb:
                    8d:80:fb:bd:34:68:57:72:c9:d8:8b:5f:60:bc:33:
                    14:e3:87:70:a6:49:05:2e:46:81:a2:35:59:4e:56:
                    22:41:3a:b9:67:b6:1f:b4:18:c8:33:8b:77:38:25:
                    8a:f0:99:97:00:f8:b7:64:7a:62:af:ab:34:d3:01:
                    d6:4b:fd:fc:4b:fc:89:d2:97:1e:54:61:97:35:4a:
                    d0:60:b8:f2:7f:be:f2:99:c2:a4:9e:e8:09:c4:87:
                    0d:ec:26:f7:ed:8d:69:34:c7:47:d2:10:0f:0d:22:
                    7b:5d:a1:35:86:0d:9b:23:9d:2a:ba:0d:71:42:50:
                    6d:88:34:0e:2d:5d:e2:a9:a2:85:fe:69:d8:32:f3:
                    66:2a:79:d4:5c:ac:41:f0:54:3e:40:3e:8b:cd:8d:
                    f6:d9
                Exponent: 65537 (0x10001)
        X509v3 extensions:
            X509v3 Basic Constraints: critical
                CA:FALSE
            X509v3 Subject Key Identifier: 
                9D:91:F8:0D:48:CD:C8:CF:F0:DE:F3:D4:31:E5:D0:B8:AF:80:1A:F7
            X509v3 Key Usage: critical
                Digital Signature, Non Repudiation, Key Encipherment
            X509v3 Extended Key Usage: 
                TLS Web Server Authentication, TLS Web Client Authentication, Microsoft Server Gated Crypto, Netscape Server Gated Crypto, E-mail Protection
            X509v3 Authority Key Identifier: 
                keyid:50:9B:6F:74:01:E3:1A:03:57:AB:D9:D5:7D:15:64:4C:25:F3:F8:F4

            X509v3 Subject Alternative Name: 
                email:andrea.ceccanti@cnaf.infn.it
    Signature Algorithm: sha1WithRSAEncryption
         32:f2:37:33:78:7a:d9:fc:9e:06:42:f5:58:01:45:3e:df:1a:
         d9:07:74:03:5b:4d:5a:04:12:41:d5:dd:0c:ad:48:ae:07:2b:
         1a:4a:d7:11:65:4c:36:0e:32:ca:ee:ac:e9:e7:a7:ce:c5:19:
         d4:e9:fd:71:00:7c:2e:a5:20:13:f3:e1:f6:ce:5b:10:1d:95:
         ad:1f:f9:a3:e6:2d:4d:8f:dd:1e:dc:14:e9:6f:8f:89:fe:b6:
         47:6b:3e:c3:72:6f:73:93:5e:bf:7c:9b:52:3d:de:9c:b0:cd:
         5e:29:44:bf:a6:19:82:23:80:d8:4c:01:6e:4d:68:c0:6b:cf:
         6d:b9:9b:81:1c:09:13:87:ab:1d:b1:52:26:57:a4:56:e6:09:
         2d:8b:16:53:a5:a1:b4:f2:e5:47:d5:69:8b:d6:25:99:43:27:
         ee:24:e6:d9:57:14:8c:8f:74:bd:42:79:1b:7e:bd:85:ba:f9:
         32:61:17:28:eb:33:09:ea:12:d9:2b:2c:1a:1e:b6:f0:98:fc:
         47:ac:2d:79:9e:9e:1b:58:be:07:29:02:32:8c:32:f3:84:32:
         cb:b1:2e:31:1d:cf:5b:8a:1a:1e:5d:c8:ed:52:7c:cd:54:15:
         05:7a:cc:1e:65:2f:2f:28:d0:2e:bf:61:26:54:79:96:05:03:
         d8:29:90:f9
-----BEGIN CERTIFICATE-----
MIIDnjCCAoagAwIBAgIBCTANBgkqhkiG9w0BAQUFADAtMQswCQYDVQQGEwJJVDEM
MAoGA1UECgwDSUdJMRAwDgYDVQQDDAdUZXN0IENBMB4XDTIyMTAwMTEzMTYzOFoX
DTMyMDkyODEzMTYzOFowKzELMAkGA1UEBhMCSVQxDDAKBgNVBAoMA0lHSTEOMAwG
A1UEAwwFdGVzdDEwggEiMA0GCSqGSIb3DQEBAQUAA4IBDwAwggEKAoIBAQDmIxiB
Aj3Ef5DkgoFbfvNBYPbLPrPVrVr1XGdL9AeLJuL+V92NK6VOowJpufAVXSsdFAVy
heKyAwhjH9w0rKng1ZAUZ4C3INX4pWOhc3FvopgzV9fahyf0JmAZETYaR8ep7MKN
gG0oy42A+700aFdyydiLX2C8MxTjh3CmSQUuRoGiNVlOViJBOrlnth+0GMgzi3c4
JYrwmZcA+LdkemKvqzTTAdZL/fxL/InSlx5UYZc1StBguPJ/vvKZwqSe6AnEhw3s
JvftjWk0x0fSEA8NIntdoTWGDZsjnSq6DXFCUG2INA4tXeKpooX+adgy82YqedRc
rEHwVD5APovNjfbZAgMBAAGjgcowgccwDAYDVR0TAQH/BAIwADAdBgNVHQ4EFgQU
nZH4DUjNyM/w3vPUMeXQuK+AGvcwDgYDVR0PAQH/BAQDAgXgMD4GA1UdJQQ3MDUG
CCsGAQUFBwMBBggrBgEFBQcDAgYKKwYBBAGCNwoDAwYJYIZIAYb4QgQBBggrBgEF
BQcDBDAfBgNVHSMEGDAWgBRQm290AeMaA1er2dV9FWRMJfP49DAnBgNVHREEIDAe
gRxhbmRyZWEuY2VjY2FudGlAY25hZi5pbmZuLml0MA0GCSqGSIb3DQEBBQUAA4IB
AQAy8jczeHrZ/J4GQvVYAUU+3xrZB3QDW01aBBJB1d0MrUiuBysaStcRZUw2DjLK
7qzp56fOxRnU6f1xAHwupSAT8+H2zlsQHZWtH/mj5i1Nj90e3BTpb4+J/rZHaz7D
cm9zk16/fJtSPd6csM1eKUS/phmCI4DYTAFuTWjAa89tuZuBHAkTh6sdsVImV6RW
5gktixZTpaG08uVH1WmL1iWZQyfuJObZVxSMj3S9Qnkbfr2FuvkyYRco6zMJ6hLZ
KywaHrbwmPxHrC15np4bWL4HKQIyjDLzhDLLsS4xHc9bihoeXcjtUnzNVBUFeswe
ZS8vKNAuv2EmVHmWBQPYKZD5
-----END CERTIFICATE-----
