Certificate:
    Data:
        Version: 3 (0x2)
        Serial Number: 14 (0xe)
    Signature Algorithm: sha1WithRSAEncryption
        Issuer: C=IT, O=IGI, CN=Test CA
        Validity
            Not Before: Sep 26 15:39:47 2012 GMT
            Not After : Sep 24 15:39:47 2022 GMT
        Subject: C=IT, O=IGI, CN=test5
        Subject Public Key Info:
            Public Key Algorithm: rsaEncryption
                Public-Key: (2048 bit)
                Modulus:
                    00:d7:a0:06:03:b2:32:dd:31:41:e3:c0:4d:20:49:
                    99:a4:78:44:da:1c:49:cd:7f:e3:8a:06:1c:90:6e:
                    c8:58:7e:8a:15:3d:2b:d7:f5:c1:27:d9:f4:38:8e:
                    ae:be:87:6b:b5:90:22:00:d6:e4:83:9a:d5:72:5b:
                    e4:d3:c3:f2:87:b5:aa:92:75:5d:7f:00:a8:40:f5:
                    43:bb:88:95:0d:1c:4c:b5:96:98:06:63:e8:d8:f3:
                    fc:c7:bd:97:fc:4d:24:a9:9d:42:9a:6c:54:7c:da:
                    d4:42:e4:2d:2b:59:3f:ea:4a:b2:dd:58:69:52:aa:
                    1d:78:a8:4a:f0:33:a9:cf:cc:1b:17:eb:06:8f:34:
                    fe:bb:59:e5:4c:60:69:a0:93:18:4b:63:0f:5a:de:
                    b5:5d:7b:a5:33:45:49:23:8d:a6:51:ba:2a:cd:a0:
                    93:0e:c2:d9:b5:f8:d9:5b:06:34:a5:14:eb:71:61:
                    a4:9d:06:9f:9b:94:42:fe:70:7b:c0:fb:49:80:47:
                    10:c8:9e:2c:e7:84:ca:df:61:11:12:79:bb:2c:fd:
                    fd:a8:c5:6e:04:2d:d8:88:e4:9d:bd:66:ce:9b:c6:
                    88:63:c8:59:61:80:0b:21:29:18:83:3e:7c:57:47:
                    4a:10:9b:ae:9d:51:16:e6:9d:2c:84:6c:f0:9f:4c:
                    3a:6b
                Exponent: 65537 (0x10001)
        X509v3 extensions:
            X509v3 Basic Constraints: critical
                CA:FALSE
            X509v3 Subject Key Identifier: 
                1A:1A:CD:8B:B5:E8:23:A8:CC:B4:21:EC:74:98:B1:55:4A:02:A2:72
            X509v3 Key Usage: critical
                Digital Signature, Non Repudiation, Key Encipherment
            X509v3 Extended Key Usage: 
                TLS Web Server Authentication, TLS Web Client Authentication, Microsoft Server Gated Crypto, Netscape Server Gated Crypto, E-mail Protection
            X509v3 Authority Key Identifier: 
                keyid:91:77:36:7B:2E:B4:69:F3:27:EA:B7:F6:08:8B:4A:23:A2:11:49:C6

            X509v3 Subject Alternative Name: 
                email:andrea.ceccanti@cnaf.infn.it
    Signature Algorithm: sha1WithRSAEncryption
         22:06:18:b5:58:4e:06:67:3f:41:cf:a5:15:2f:72:4b:f5:5e:
         57:fe:bd:57:69:8c:32:de:15:b7:9d:07:00:ad:b9:65:2d:9d:
         9a:c8:ab:02:6c:b8:b1:d2:ea:c6:f1:4b:10:23:66:c7:b2:41:
         b4:05:06:df:fa:cd:7b:18:5e:5e:b4:59:ab:c4:a6:23:a2:54:
         58:b8:17:f1:08:2d:8b:d0:35:7d:e6:d8:86:29:7a:98:0c:7b:
         74:22:b7:20:cb:93:e2:aa:cb:4d:5f:30:47:08:15:de:53:8c:
         8d:37:98:ce:18:f4:fc:2c:74:29:3b:65:b1:34:4c:02:8f:08:
         f7:04:e6:90:e5:89:c9:e7:93:77:05:ae:a5:e4:67:a1:4e:0c:
         ac:93:c1:97:8e:b6:29:72:58:57:44:71:6b:56:58:2f:bf:0a:
         b1:3d:0d:88:c1:3a:ce:aa:70:78:70:f7:8b:b9:cb:3c:5a:11:
         1c:98:47:de:f1:40:ff:cf:bc:b5:e3:de:9e:f6:d9:fc:5b:86:
         6a:25:31:37:fb:0d:a9:4b:6f:e2:fc:25:68:4a:fa:89:8c:58:
         fd:5a:a1:f5:1b:fd:13:65:1b:78:e5:f1:f8:cb:a9:f2:85:bf:
         19:dd:7f:c1:4f:14:0d:34:0f:a4:91:97:46:ee:c4:9f:b9:56:
         e7:fd:04:65
-----BEGIN CERTIFICATE-----
MIIDnjCCAoagAwIBAgIBDjANBgkqhkiG9w0BAQUFADAtMQswCQYDVQQGEwJJVDEM
MAoGA1UECgwDSUdJMRAwDgYDVQQDDAdUZXN0IENBMB4XDTEyMDkyNjE1Mzk0N1oX
DTIyMDkyNDE1Mzk0N1owKzELMAkGA1UEBhMCSVQxDDAKBgNVBAoTA0lHSTEOMAwG
A1UEAxMFdGVzdDUwggEiMA0GCSqGSIb3DQEBAQUAA4IBDwAwggEKAoIBAQDXoAYD
sjLdMUHjwE0gSZmkeETaHEnNf+OKBhyQbshYfooVPSvX9cEn2fQ4jq6+h2u1kCIA
1uSDmtVyW+TTw/KHtaqSdV1/AKhA9UO7iJUNHEy1lpgGY+jY8/zHvZf8TSSpnUKa
bFR82tRC5C0rWT/qSrLdWGlSqh14qErwM6nPzBsX6waPNP67WeVMYGmgkxhLYw9a
3rVde6UzRUkjjaZRuirNoJMOwtm1+NlbBjSlFOtxYaSdBp+blEL+cHvA+0mARxDI
niznhMrfYRESebss/f2oxW4ELdiI5J29Zs6bxohjyFlhgAshKRiDPnxXR0oQm66d
URbmnSyEbPCfTDprAgMBAAGjgcowgccwDAYDVR0TAQH/BAIwADAdBgNVHQ4EFgQU
GhrNi7XoI6jMtCHsdJixVUoConIwDgYDVR0PAQH/BAQDAgXgMD4GA1UdJQQ3MDUG
CCsGAQUFBwMBBggrBgEFBQcDAgYKKwYBBAGCNwoDAwYJYIZIAYb4QgQBBggrBgEF
BQcDBDAfBgNVHSMEGDAWgBSRdzZ7LrRp8yfqt/YIi0ojohFJxjAnBgNVHREEIDAe
gRxhbmRyZWEuY2VjY2FudGlAY25hZi5pbmZuLml0MA0GCSqGSIb3DQEBBQUAA4IB
AQAiBhi1WE4GZz9Bz6UVL3JL9V5X/r1XaYwy3hW3nQcArbllLZ2ayKsCbLix0urG
8UsQI2bHskG0BQbf+s17GF5etFmrxKYjolRYuBfxCC2L0DV95tiGKXqYDHt0Ircg
y5PiqstNXzBHCBXeU4yNN5jOGPT8LHQpO2WxNEwCjwj3BOaQ5YnJ55N3Ba6l5Geh
Tgysk8GXjrYpclhXRHFrVlgvvwqxPQ2IwTrOqnB4cPeLucs8WhEcmEfe8UD/z7y1
496e9tn8W4ZqJTE3+w2pS2/i/CVoSvqJjFj9WqH1G/0TZRt45fH4y6nyhb8Z3X/B
TxQNNA+kkZdG7sSfuVbn/QRl
-----END CERTIFICATE-----
