Certificate:
    Data:
        Version: 3 (0x2)
        Serial Number: 13 (0xd)
    Signature Algorithm: sha1WithRSAEncryption
        Issuer: C=IT, O=IGI, CN=Test CA
        Validity
            Not Before: Oct  1 13:17:05 2022 GMT
            Not After : Sep 28 13:17:05 2032 GMT
        Subject: C=IT, O=IGI, CN=test5
        Subject Public Key Info:
            Public Key Algorithm: rsaEncryption
                Public-Key: (2048 bit)
                Modulus:
                    00:eb:8e:9d:1a:c3:eb:d9:41:7e:f4:3e:82:4e:cc:
                    81:cf:85:66:85:3e:1e:a7:81:aa:ce:13:13:0e:e6:
                    45:c8:6d:14:c6:14:49:f5:79:93:53:29:8b:f9:fd:
                    cd:83:44:b5:b5:08:be:07:ff:f2:28:8f:fc:35:1e:
                    82:96:b9:8d:44:ba:d6:76:43:29:72:4f:06:3c:90:
                    3e:c1:e6:2c:69:41:11:56:a4:36:e5:0a:df:38:72:
                    bd:63:cc:15:8d:38:ad:c5:f4:ec:21:04:91:d4:a7:
                    0e:0c:92:6b:06:67:24:21:e7:46:7b:89:9e:d1:11:
                    4d:fd:4f:25:8d:c2:bf:68:b2:05:34:aa:e0:f2:2e:
                    06:82:5b:da:27:af:d5:94:c0:22:41:b4:b9:4b:4d:
                    12:29:e4:c0:5e:bf:cd:f5:20:28:ac:23:ed:0f:5b:
                    d1:f1:40:13:2d:18:b8:ef:c5:f0:48:39:c5:fc:19:
                    fd:cc:31:74:99:dd:f6:e0:ee:01:17:2d:a1:4c:9e:
                    aa:d7:18:6b:5b:b9:9d:45:a0:c9:dc:48:a3:c3:94:
                    8f:b9:71:3a:a4:0c:86:0f:6d:a5:24:95:92:7e:0d:
                    e4:b8:05:fa:0b:d3:c5:9d:71:8b:01:5c:73:1b:29:
                    ee:ba:99:96:55:b4:25:59:e1:7b:1e:41:c5:85:62:
                    d9:f5
                Exponent: 65537 (0x10001)
        X509v3 extensions:
            X509v3 Basic Constraints: critical
                CA:FALSE
            X509v3 Subject Key Identifier: 
                2C:45:45:A9:A2:69:95:36:65:16:7D:C0:49:F3:5A:01:11:55:FD:9B
            X509v3 Key Usage: critical
                Digital Signature, Non Repudiation, Key Encipherment
            X509v3 Extended Key Usage: 
                TLS Web Server Authentication, TLS Web Client Authentication, Microsoft Server Gated Crypto, Netscape Server Gated Crypto, E-mail Protection
            X509v3 Authority Key Identifier: 
                keyid:50:9B:6F:74:01:E3:1A:03:57:AB:D9:D5:7D:15:64:4C:25:F3:F8:F4

            X509v3 Subject Alternative Name: 
                email:andrea.ceccanti@cnaf.infn.it
    Signature Algorithm: sha1WithRSAEncryption
         3c:62:59:c9:1e:a4:e9:27:7b:cd:3a:b1:3a:38:4f:33:2c:05:
         9f:59:45:5a:2a:13:21:90:75:28:8c:2c:2b:1b:e1:16:32:8b:
         9f:9a:1b:8d:32:0d:a8:01:69:16:5e:b2:b6:8c:d6:28:6a:56:
         5d:0f:f6:f4:c0:9e:31:67:ba:8d:5b:a9:73:e3:0a:a2:02:e1:
         6f:75:73:f9:f9:e4:d0:42:de:80:08:98:69:61:53:8b:d5:73:
         12:e2:f5:60:6d:a2:b4:d9:35:e1:3e:24:be:c0:48:00:3f:ed:
         28:63:69:45:71:d5:39:e9:40:51:b2:91:74:7e:7e:3c:22:8e:
         a4:96:cf:89:80:99:5c:25:63:65:8c:ca:49:3d:6f:9f:80:cd:
         72:89:0e:32:35:4c:c4:1f:61:32:c3:79:9b:7f:7b:06:9a:96:
         dd:14:ff:18:f7:3d:45:6f:f1:87:13:f7:6b:d9:84:63:a3:40:
         45:28:a7:4f:47:79:82:9a:1c:7e:3e:7c:55:96:35:eb:55:8b:
         4f:5e:ee:74:2a:c3:50:76:70:44:f9:99:18:ff:2e:c8:b7:10:
         49:62:f0:c0:18:65:9c:c5:07:89:38:59:85:6c:26:fa:41:0c:
         ff:92:08:fd:64:73:9a:5d:68:e5:0c:75:4f:d4:a7:ec:73:0e:
         ee:41:81:59
-----BEGIN CERTIFICATE-----
MIIDnjCCAoagAwIBAgIBDTANBgkqhkiG9w0BAQUFADAtMQswCQYDVQQGEwJJVDEM
MAoGA1UECgwDSUdJMRAwDgYDVQQDDAdUZXN0IENBMB4XDTIyMTAwMTEzMTcwNVoX
DTMyMDkyODEzMTcwNVowKzELMAkGA1UEBhMCSVQxDDAKBgNVBAoMA0lHSTEOMAwG
A1UEAwwFdGVzdDUwggEiMA0GCSqGSIb3DQEBAQUAA4IBDwAwggEKAoIBAQDrjp0a
w+vZQX70PoJOzIHPhWaFPh6ngarOExMO5kXIbRTGFEn1eZNTKYv5/c2DRLW1CL4H
//Ioj/w1HoKWuY1EutZ2QylyTwY8kD7B5ixpQRFWpDblCt84cr1jzBWNOK3F9Owh
BJHUpw4MkmsGZyQh50Z7iZ7REU39TyWNwr9osgU0quDyLgaCW9onr9WUwCJBtLlL
TRIp5MBev831ICisI+0PW9HxQBMtGLjvxfBIOcX8Gf3MMXSZ3fbg7gEXLaFMnqrX
GGtbuZ1FoMncSKPDlI+5cTqkDIYPbaUklZJ+DeS4BfoL08WdcYsBXHMbKe66mZZV
tCVZ4XseQcWFYtn1AgMBAAGjgcowgccwDAYDVR0TAQH/BAIwADAdBgNVHQ4EFgQU
LEVFqaJplTZlFn3ASfNaARFV/ZswDgYDVR0PAQH/BAQDAgXgMD4GA1UdJQQ3MDUG
CCsGAQUFBwMBBggrBgEFBQcDAgYKKwYBBAGCNwoDAwYJYIZIAYb4QgQBBggrBgEF
BQcDBDAfBgNVHSMEGDAWgBRQm290AeMaA1er2dV9FWRMJfP49DAnBgNVHREEIDAe
gRxhbmRyZWEuY2VjY2FudGlAY25hZi5pbmZuLml0MA0GCSqGSIb3DQEBBQUAA4IB
AQA8YlnJHqTpJ3vNOrE6OE8zLAWfWUVaKhMhkHUojCwrG+EWMoufmhuNMg2oAWkW
XrK2jNYoalZdD/b0wJ4xZ7qNW6lz4wqiAuFvdXP5+eTQQt6ACJhpYVOL1XMS4vVg
baK02TXhPiS+wEgAP+0oY2lFcdU56UBRspF0fn48Io6kls+JgJlcJWNljMpJPW+f
gM1yiQ4yNUzEH2Eyw3mbf3sGmpbdFP8Y9z1Fb/GHE/dr2YRjo0BFKKdPR3mCmhx+
PnxVljXrVYtPXu50KsNQdnBE+ZkY/y7ItxBJYvDAGGWcxQeJOFmFbCb6QQz/kgj9
ZHOaXWjlDHVP1Kfscw7uQYFZ
-----END CERTIFICATE-----
