Certificate:
    Data:
        Version: 3 (0x2)
        Serial Number: 19 (0x13)
    Signature Algorithm: sha512WithRSAEncryption
        Issuer: C=IT, O=IGI, CN=Test CA
        Validity
            Not Before: Oct 19 08:55:57 2022 GMT
            Not After : Oct 16 08:55:57 2032 GMT
        Subject: C=IT, O=IGI, CN=*.test.example
        Subject Public Key Info:
            Public Key Algorithm: rsaEncryption
                Public-Key: (2048 bit)
                Modulus:
                    00:e7:3a:01:a8:93:12:08:f4:a6:c9:89:10:a2:f6:
                    6a:6a:d3:93:98:c7:31:c0:e5:8a:3a:44:9b:cf:ef:
                    b9:3d:05:86:03:61:0e:6e:fc:c6:f9:9a:9e:35:d6:
                    3d:38:27:48:cb:77:26:97:15:34:a0:0b:1d:97:31:
                    dd:18:ec:bf:78:d9:32:9e:00:1a:44:6a:78:15:1f:
                    ac:7b:3e:bb:ad:b2:b4:32:75:8c:11:d8:31:ec:19:
                    7d:bf:ba:5d:1e:70:38:62:10:cf:3a:8a:a4:98:83:
                    b4:df:e0:50:3b:e5:ec:24:a0:89:14:2c:19:27:48:
                    66:c3:d4:1d:74:63:be:63:38:95:3f:64:d0:91:ac:
                    95:f7:d9:ca:96:b5:1b:e7:71:70:7b:5f:3b:12:30:
                    2c:b8:3a:28:79:84:9c:81:12:db:38:31:6d:2d:2a:
                    e2:80:05:5c:29:77:53:58:10:19:ee:f9:50:e1:8d:
                    3b:2b:e2:c0:0b:d2:9f:3c:a0:95:33:f8:33:17:ce:
                    23:0e:31:e8:1e:3d:7e:6a:c9:6d:83:9e:0b:fa:43:
                    d2:4a:3f:be:d3:19:07:1e:8c:e4:f6:dc:8f:c3:3e:
                    3a:8e:66:4a:87:ef:0b:39:db:e8:3e:30:1c:91:9e:
                    b3:1e:d3:a0:1e:1b:9a:b1:58:99:de:a5:bb:53:3b:
                    3b:5d
                Exponent: 65537 (0x10001)
        X509v3 extensions:
            X509v3 Basic Constraints: critical
                CA:FALSE
            X509v3 Subject Key Identifier: 
                60:FA:21:CE:1C:B5:31:8D:9B:01:F6:08:5B:72:4D:59:5A:F8:71:8C
            X509v3 Key Usage: critical
                Digital Signature, Non Repudiation, Key Encipherment
            X509v3 Extended Key Usage: 
                TLS Web Server Authentication, TLS Web Client Authentication, Microsoft Server Gated Crypto, Netscape Server Gated Crypto, E-mail Protection
            X509v3 Authority Key Identifier: 
                keyid:50:9B:6F:74:01:E3:1A:03:57:AB:D9:D5:7D:15:64:4C:25:F3:F8:F4

            X509v3 Subject Alternative Name: 
                DNS:*.test.example
    Signature Algorithm: sha512WithRSAEncryption
         79:82:f2:54:44:98:96:25:c2:83:c9:0f:19:69:1c:f6:a7:19:
         0d:61:90:f9:96:23:e2:ab:5a:30:db:55:d7:4f:b0:ff:b2:7b:
         41:da:35:97:47:86:e4:85:00:6d:11:64:ee:32:a4:64:ee:fe:
         b2:83:a5:24:4a:ce:c3:91:ae:db:3d:5b:af:fa:7e:81:1a:1c:
         69:d0:1a:9e:70:0e:9e:74:85:6b:48:90:6a:1b:62:ff:6e:b3:
         84:30:b7:7f:fa:c0:3e:ee:91:70:0b:f2:13:ea:c8:2c:aa:d8:
         cb:3c:60:b1:08:f9:8e:bf:c2:e4:ce:92:6a:7e:0a:41:49:94:
         8f:e5:6e:71:f9:47:04:1a:18:1f:65:47:d6:1c:ea:a9:90:71:
         82:1b:3b:1f:a5:f2:02:ce:5c:d6:2e:5d:1e:05:c4:92:9e:3d:
         8e:ce:fa:00:83:01:d5:c3:c1:cf:e2:e5:fb:08:80:08:f4:6c:
         26:64:96:db:cd:be:4c:e7:bc:8f:af:3d:0e:0c:f7:d2:52:15:
         9c:d5:15:0d:51:b3:95:72:78:1d:8c:ca:37:55:7a:c0:b0:0f:
         18:ae:de:d0:27:6f:1b:e4:5d:1d:4b:f9:4c:5d:44:49:ed:cf:
         c2:9e:e7:c6:55:72:ce:2f:43:a7:2f:88:de:b7:da:9f:82:a6:
         54:77:c2:2e
-----BEGIN CERTIFICATE-----
MIIDmTCCAoGgAwIBAgIBEzANBgkqhkiG9w0BAQ0FADAtMQswCQYDVQQGEwJJVDEM
MAoGA1UECgwDSUdJMRAwDgYDVQQDDAdUZXN0IENBMB4XDTIyMTAxOTA4NTU1N1oX
DTMyMTAxNjA4NTU1N1owNDELMAkGA1UEBhMCSVQxDDAKBgNVBAoMA0lHSTEXMBUG
A1UEAwwOKi50ZXN0LmV4YW1wbGUwggEiMA0GCSqGSIb3DQEBAQUAA4IBDwAwggEK
AoIBAQDnOgGokxII9KbJiRCi9mpq05OYxzHA5Yo6RJvP77k9BYYDYQ5u/Mb5mp41
1j04J0jLdyaXFTSgCx2XMd0Y7L942TKeABpEangVH6x7PrutsrQydYwR2DHsGX2/
ul0ecDhiEM86iqSYg7Tf4FA75ewkoIkULBknSGbD1B10Y75jOJU/ZNCRrJX32cqW
tRvncXB7XzsSMCy4Oih5hJyBEts4MW0tKuKABVwpd1NYEBnu+VDhjTsr4sAL0p88
oJUz+DMXziMOMegePX5qyW2Dngv6Q9JKP77TGQcejOT23I/DPjqOZkqH7ws52+g+
MByRnrMe06AeG5qxWJnepbtTOztdAgMBAAGjgbwwgbkwDAYDVR0TAQH/BAIwADAd
BgNVHQ4EFgQUYPohzhy1MY2bAfYIW3JNWVr4cYwwDgYDVR0PAQH/BAQDAgXgMD4G
A1UdJQQ3MDUGCCsGAQUFBwMBBggrBgEFBQcDAgYKKwYBBAGCNwoDAwYJYIZIAYb4
QgQBBggrBgEFBQcDBDAfBgNVHSMEGDAWgBRQm290AeMaA1er2dV9FWRMJfP49DAZ
BgNVHREEEjAQgg4qLnRlc3QuZXhhbXBsZTANBgkqhkiG9w0BAQ0FAAOCAQEAeYLy
VESYliXCg8kPGWkc9qcZDWGQ+ZYj4qtaMNtV10+w/7J7Qdo1l0eG5IUAbRFk7jKk
ZO7+soOlJErOw5Gu2z1br/p+gRocadAannAOnnSFa0iQahti/26zhDC3f/rAPu6R
cAvyE+rILKrYyzxgsQj5jr/C5M6San4KQUmUj+VucflHBBoYH2VH1hzqqZBxghs7
H6XyAs5c1i5dHgXEkp49js76AIMB1cPBz+Ll+wiACPRsJmSW282+TOe8j689Dgz3
0lIVnNUVDVGzlXJ4HYzKN1V6wLAPGK7e0CdvG+RdHUv5TF1ESe3Pwp7nxlVyzi9D
py+I3rfan4KmVHfCLg==
-----END CERTIFICATE-----
