Certificate:
    Data:
        Version: 3 (0x2)
        Serial Number: 10 (0xa)
    Signature Algorithm: sha1WithRSAEncryption
        Issuer: C=IT, O=IGI, CN=Test CA
        Validity
            Not Before: Sep 26 15:39:36 2012 GMT
            Not After : Sep 24 15:39:36 2022 GMT
        Subject: C=IT, O=IGI, CN=test1
        Subject Public Key Info:
            Public Key Algorithm: rsaEncryption
                Public-Key: (2048 bit)
                Modulus:
                    00:ce:d8:5f:03:36:b4:1d:28:58:22:0a:ce:1d:37:
                    79:17:d9:3c:8d:1e:35:34:76:04:f4:7f:9a:86:0c:
                    2e:06:26:02:9f:93:9b:7b:36:0d:8d:57:24:55:f3:
                    c2:be:d0:9d:26:0e:91:54:86:48:fa:db:e7:35:ab:
                    53:63:ad:32:1e:78:13:69:a0:64:d2:19:9c:6a:9b:
                    1a:d6:e8:7a:b5:33:5e:01:e0:0e:1e:0d:9e:98:68:
                    0c:1e:6d:42:34:7e:45:6d:05:e0:70:05:88:a9:0f:
                    51:87:76:37:34:93:c8:58:1d:e0:b3:19:7d:1b:1c:
                    d0:43:66:83:b7:64:92:98:ed:e2:ec:e7:75:eb:7e:
                    81:4c:51:99:3d:fc:5b:5a:8d:8b:fd:3b:ad:82:7d:
                    24:65:83:40:05:6b:01:37:f3:53:2e:80:8b:6a:f4:
                    eb:41:9c:4a:a2:2f:03:e7:d1:74:c0:11:19:d6:04:
                    54:04:08:60:21:e3:a9:30:91:11:a3:e6:53:f4:7e:
                    f6:9f:a7:14:bd:70:f3:c8:96:8d:0d:dc:a6:28:86:
                    f7:f0:8a:34:02:7f:3c:15:dd:bc:79:f0:58:e2:fb:
                    33:fb:0a:a0:88:59:32:bc:c8:0e:94:a3:d5:de:3a:
                    80:00:61:be:31:9d:19:e5:ee:f6:08:3a:8c:f0:44:
                    f0:e7
                Exponent: 65537 (0x10001)
        X509v3 extensions:
            X509v3 Basic Constraints: critical
                CA:FALSE
            X509v3 Subject Key Identifier: 
                DD:25:F1:5B:38:2B:67:15:1A:F3:B6:58:E7:3F:CC:C8:6A:14:4A:9E
            X509v3 Key Usage: critical
                Digital Signature, Non Repudiation, Key Encipherment
            X509v3 Extended Key Usage: 
                TLS Web Server Authentication, TLS Web Client Authentication, Microsoft Server Gated Crypto, Netscape Server Gated Crypto, E-mail Protection
            X509v3 Authority Key Identifier: 
                keyid:91:77:36:7B:2E:B4:69:F3:27:EA:B7:F6:08:8B:4A:23:A2:11:49:C6

            X509v3 Subject Alternative Name: 
                email:andrea.ceccanti@cnaf.infn.it
    Signature Algorithm: sha1WithRSAEncryption
         6a:2b:55:3e:a9:29:94:d4:94:e4:e1:dc:1e:2f:a1:0c:14:90:
         fd:1c:39:86:43:6e:40:45:db:f5:66:90:dc:21:74:8f:9f:28:
         d2:46:c6:09:e9:28:f0:c1:cd:a1:81:e6:81:e9:be:f0:ae:38:
         46:06:f9:50:70:12:7a:23:34:95:55:c7:3f:63:75:40:00:2b:
         fb:d5:2e:0c:5e:b6:95:70:11:61:70:63:14:8c:e5:be:9b:0d:
         7b:3d:68:a2:90:61:01:bb:e8:be:a2:a6:93:60:a8:91:15:61:
         93:0e:87:be:69:ca:af:4d:0f:3d:ed:0a:1e:d2:be:f5:54:8d:
         12:91:38:33:f7:8c:75:9f:91:36:65:72:a6:28:8a:ac:cf:55:
         d9:29:40:62:a8:2d:48:d9:b6:dc:d3:09:e0:8e:00:06:ec:7b:
         c5:63:57:5e:d5:b2:85:cc:5e:5b:6f:f0:54:15:d6:e1:92:6b:
         6d:75:72:45:f7:9b:d1:21:4f:79:81:91:54:85:e2:4c:fb:68:
         27:e1:e1:a2:43:f7:8f:df:3e:8c:49:72:01:64:81:cb:2f:a4:
         77:f6:ca:a7:cc:54:62:36:39:8a:04:c4:b9:6a:21:3a:6c:cb:
         d7:d3:33:ce:49:6e:3c:b4:83:bf:b3:bd:0f:6c:82:a1:7a:d7:
         c0:59:d7:61
-----BEGIN CERTIFICATE-----
MIIDnjCCAoagAwIBAgIBCjANBgkqhkiG9w0BAQUFADAtMQswCQYDVQQGEwJJVDEM
MAoGA1UECgwDSUdJMRAwDgYDVQQDDAdUZXN0IENBMB4XDTEyMDkyNjE1MzkzNloX
DTIyMDkyNDE1MzkzNlowKzELMAkGA1UEBhMCSVQxDDAKBgNVBAoTA0lHSTEOMAwG
A1UEAxMFdGVzdDEwggEiMA0GCSqGSIb3DQEBAQUAA4IBDwAwggEKAoIBAQDO2F8D
NrQdKFgiCs4dN3kX2TyNHjU0dgT0f5qGDC4GJgKfk5t7Ng2NVyRV88K+0J0mDpFU
hkj62+c1q1NjrTIeeBNpoGTSGZxqmxrW6Hq1M14B4A4eDZ6YaAwebUI0fkVtBeBw
BYipD1GHdjc0k8hYHeCzGX0bHNBDZoO3ZJKY7eLs53XrfoFMUZk9/FtajYv9O62C
fSRlg0AFawE381MugItq9OtBnEqiLwPn0XTAERnWBFQECGAh46kwkRGj5lP0fvaf
pxS9cPPIlo0N3KYohvfwijQCfzwV3bx58Fji+zP7CqCIWTK8yA6Uo9XeOoAAYb4x
nRnl7vYIOozwRPDnAgMBAAGjgcowgccwDAYDVR0TAQH/BAIwADAdBgNVHQ4EFgQU
3SXxWzgrZxUa87ZY5z/MyGoUSp4wDgYDVR0PAQH/BAQDAgXgMD4GA1UdJQQ3MDUG
CCsGAQUFBwMBBggrBgEFBQcDAgYKKwYBBAGCNwoDAwYJYIZIAYb4QgQBBggrBgEF
BQcDBDAfBgNVHSMEGDAWgBSRdzZ7LrRp8yfqt/YIi0ojohFJxjAnBgNVHREEIDAe
gRxhbmRyZWEuY2VjY2FudGlAY25hZi5pbmZuLml0MA0GCSqGSIb3DQEBBQUAA4IB
AQBqK1U+qSmU1JTk4dweL6EMFJD9HDmGQ25ARdv1ZpDcIXSPnyjSRsYJ6Sjwwc2h
geaB6b7wrjhGBvlQcBJ6IzSVVcc/Y3VAACv71S4MXraVcBFhcGMUjOW+mw17PWii
kGEBu+i+oqaTYKiRFWGTDoe+acqvTQ897Qoe0r71VI0SkTgz94x1n5E2ZXKmKIqs
z1XZKUBiqC1I2bbc0wngjgAG7HvFY1de1bKFzF5bb/BUFdbhkmttdXJF95vRIU95
gZFUheJM+2gn4eGiQ/eP3z6MSXIBZIHLL6R39sqnzFRiNjmKBMS5aiE6bMvX0zPO
SW48tIO/s70PbIKhetfAWddh
-----END CERTIFICATE-----
