Certificate:
    Data:
        Version: 3 (0x2)
        Serial Number: 2 (0x2)
    Signature Algorithm: sha1WithRSAEncryption
        Issuer: C=IT, O=IGI, CN=Test CA
        Validity
            Not Before: Sep 26 15:08:56 2012 GMT
            Not After : Sep 24 15:08:56 2022 GMT
        Subject: C=IT, O=IGI, CN=wilco.cnaf.infn.it
        Subject Public Key Info:
            Public Key Algorithm: rsaEncryption
                Public-Key: (2048 bit)
                Modulus:
                    00:fa:14:c2:26:6e:07:03:5a:25:ca:b4:00:81:92:
                    e8:21:ff:62:26:2e:fb:00:69:21:39:8e:f2:37:dc:
                    82:ef:1c:35:88:35:19:a4:67:39:4f:fd:ea:a4:9f:
                    07:45:e3:46:df:a0:16:ec:08:04:2b:be:09:6c:c4:
                    0b:ff:a5:47:77:2c:be:c3:4f:f8:34:7c:8c:99:8d:
                    df:f0:1c:d4:35:99:2a:ac:55:f8:ac:98:6b:eb:ec:
                    ce:c8:c9:8c:4a:fc:70:42:88:df:2b:9b:4a:26:a0:
                    41:5d:9c:7c:56:40:4c:f5:79:36:cb:0e:8c:df:f6:
                    73:d8:bc:f6:d7:e7:74:76:63:24:e9:2e:c1:81:01:
                    69:59:69:54:83:bb:ab:01:75:2a:12:a6:4b:4c:d1:
                    49:64:a2:58:d1:f2:87:6d:e9:f8:4a:3d:9c:74:ce:
                    d4:5b:0b:fa:6f:37:d6:af:20:37:f7:e5:d7:8b:de:
                    40:f6:43:41:61:e6:97:f0:6d:b4:7d:be:b2:40:05:
                    b9:fe:48:bf:77:94:55:f0:11:2c:3a:8b:21:f6:36:
                    3e:21:fc:8a:8d:e8:8b:fa:fd:a5:ea:f2:f9:61:06:
                    ef:04:d4:2f:a4:5b:a4:63:f8:33:af:38:76:71:48:
                    ed:b5:67:0e:15:f4:55:55:29:ec:b9:ce:03:3d:8e:
                    25:1f
                Exponent: 65537 (0x10001)
        X509v3 extensions:
            X509v3 Basic Constraints: critical
                CA:FALSE
            X509v3 Subject Key Identifier: 
                21:9A:C8:2A:83:F8:E9:64:90:D2:5A:23:CA:FD:9D:48:50:A1:F4:91
            X509v3 Key Usage: critical
                Digital Signature, Non Repudiation, Key Encipherment
            X509v3 Extended Key Usage: 
                TLS Web Server Authentication, TLS Web Client Authentication, Microsoft Server Gated Crypto, Netscape Server Gated Crypto, E-mail Protection
            X509v3 Authority Key Identifier: 
                keyid:91:77:36:7B:2E:B4:69:F3:27:EA:B7:F6:08:8B:4A:23:A2:11:49:C6

            X509v3 Subject Alternative Name: 
                email:andrea.ceccanti@cnaf.infn.it
    Signature Algorithm: sha1WithRSAEncryption
         45:0f:5b:3f:01:53:c4:ee:28:15:2d:e8:b3:03:ea:e6:8e:9f:
         43:77:cd:ed:ca:bc:fa:0d:fe:df:a6:b9:3f:e5:10:7a:fb:4c:
         a5:56:7c:b1:6e:b9:8e:0d:50:8e:12:d9:b3:58:2e:f4:07:1a:
         41:85:24:d3:c0:12:0b:9f:53:4f:8a:b7:1f:bb:f2:a2:ad:c1:
         cd:85:37:71:ad:d4:28:0b:88:17:94:f0:57:a5:a5:49:c2:5d:
         98:8a:bd:ea:58:a4:ff:6e:7c:0c:43:76:87:48:03:11:12:aa:
         b8:bc:17:2f:42:18:9f:d5:76:8e:d1:9a:83:03:92:7b:81:c8:
         32:d2:10:07:fa:4b:ad:56:d2:6e:ee:e9:72:dc:73:44:45:e6:
         03:46:09:4a:3c:bb:66:f1:d1:9b:27:b6:70:ea:dc:28:ea:30:
         28:97:b9:bd:01:3a:1f:7a:2b:ad:47:0e:62:95:7e:ab:56:84:
         a0:04:9f:c2:3d:02:f3:76:7a:b8:d4:3d:8e:25:af:2c:93:06:
         59:dd:b4:a4:1d:cf:4c:e2:14:75:5f:22:34:fd:ef:6f:d1:e4:
         dd:bf:f0:63:42:dd:be:ad:65:63:7a:e8:47:26:88:8d:3e:be:
         3f:8d:f0:8d:5b:16:24:1d:fe:65:36:23:57:aa:4b:3e:f8:d6:
         8b:bb:38:7a
-----BEGIN CERTIFICATE-----
MIIDqzCCApOgAwIBAgIBAjANBgkqhkiG9w0BAQUFADAtMQswCQYDVQQGEwJJVDEM
MAoGA1UECgwDSUdJMRAwDgYDVQQDDAdUZXN0IENBMB4XDTEyMDkyNjE1MDg1NloX
DTIyMDkyNDE1MDg1NlowODELMAkGA1UEBhMCSVQxDDAKBgNVBAoTA0lHSTEbMBkG
A1UEAxMSd2lsY28uY25hZi5pbmZuLml0MIIBIjANBgkqhkiG9w0BAQEFAAOCAQ8A
MIIBCgKCAQEA+hTCJm4HA1olyrQAgZLoIf9iJi77AGkhOY7yN9yC7xw1iDUZpGc5
T/3qpJ8HReNG36AW7AgEK74JbMQL/6VHdyy+w0/4NHyMmY3f8BzUNZkqrFX4rJhr
6+zOyMmMSvxwQojfK5tKJqBBXZx8VkBM9Xk2yw6M3/Zz2Lz21+d0dmMk6S7BgQFp
WWlUg7urAXUqEqZLTNFJZKJY0fKHben4Sj2cdM7UWwv6bzfWryA39+XXi95A9kNB
YeaX8G20fb6yQAW5/ki/d5RV8BEsOosh9jY+IfyKjeiL+v2l6vL5YQbvBNQvpFuk
Y/gzrzh2cUjttWcOFfRVVSnsuc4DPY4lHwIDAQABo4HKMIHHMAwGA1UdEwEB/wQC
MAAwHQYDVR0OBBYEFCGayCqD+OlkkNJaI8r9nUhQofSRMA4GA1UdDwEB/wQEAwIF
4DA+BgNVHSUENzA1BggrBgEFBQcDAQYIKwYBBQUHAwIGCisGAQQBgjcKAwMGCWCG
SAGG+EIEAQYIKwYBBQUHAwQwHwYDVR0jBBgwFoAUkXc2ey60afMn6rf2CItKI6IR
ScYwJwYDVR0RBCAwHoEcYW5kcmVhLmNlY2NhbnRpQGNuYWYuaW5mbi5pdDANBgkq
hkiG9w0BAQUFAAOCAQEARQ9bPwFTxO4oFS3oswPq5o6fQ3fN7cq8+g3+36a5P+UQ
evtMpVZ8sW65jg1QjhLZs1gu9AcaQYUk08ASC59TT4q3H7vyoq3BzYU3ca3UKAuI
F5TwV6WlScJdmIq96lik/258DEN2h0gDERKquLwXL0IYn9V2jtGagwOSe4HIMtIQ
B/pLrVbSbu7pctxzREXmA0YJSjy7ZvHRmye2cOrcKOowKJe5vQE6H3orrUcOYpV+
q1aEoASfwj0C83Z6uNQ9jiWvLJMGWd20pB3PTOIUdV8iNP3vb9Hk3b/wY0Ldvq1l
Y3roRyaIjT6+P43wjVsWJB3+ZTYjV6pLPvjWi7s4eg==
-----END CERTIFICATE-----
